[XbeInfo]
TitleID=FFFE0000
TitleName=Xbox OnlineDash

[Symbols]
?__AddRef@DirectSound@@YGPAVCDirectSound@1@PAV21@@Z=$0008746B;unsigned short volatile  // ## UNPATCHED ## - 
?FindEdge@@YAIPAGG@Z=$00079600;dEdge // ## UNPATCHED ## - 
?FindEdge@@YAIPAII@Z=$00079D0D;dEdge // ## UNPATCHED ## - 
?IsPowerOf2@@YGHK@Z=$000DEB85;erOf2 // ## UNPATCHED ## - 
?VertexHashAdd@@YAHPAUD3DXVECTOR3@@KPAPAUSVertexHashEntry@@PAU2@KPAK3PAV?$GXTri3Face@G@@33@Z=$0007DCC2;AHPAUD3DXVECTOR3 const  // ## UNPATCHED ## - 
?VertexHashAdd@@YAHPAUD3DXVECTOR3@@KPAPAUSVertexHashEntry@@PAU2@KPAK3PAV?$GXTri3Face@I@@33@Z=$0007D842;AHPAUD3DXVECTOR3 const  // -- Patched -- 
?WhichBit@@YGEK@Z=$000DEB9F; ?? . ?? .Z.GEK volatile  // ## UNPATCHED ## - 
?Release@?$ComPtr@UIActiveScriptSite@@@SmartRef@@QAEXXZ=$0001F9D0;unsigned char * const  // -- Patched -- 
?Release@?$ComPtr@VEngineDispatch@@@SmartRef@@QAEXXZ=$00036389;unsigned char * const  // -- Patched -- 
?ASN1DecAlloc@@YGPAXPAUASN1decoding_s@@K@Z=$000CB013;char const * const volatile // ## UNPATCHED ## - 
?MessageTaskClose@CXo@@IAEXPAUXONLINETASK_HANDLE__@@@Z=$000BB7F1;CXo.sageTaskClose // -- Patched -- 
?ResetComplete@IUsbDevice@@QAEXJPAX@Z=$000DF958;unsigned char * const  // ## UNPATCHED ## - 
?SysAlloc@CXo@@IAEPAXIK@Z=$000C4D5F;unsigned int volatile  // ## UNPATCHED ## - 
?SysFree@CXo@@IAEXPAXK@Z=$000C4D96;unsigned int volatile  // ## UNPATCHED ## - 
?Discard@CPacketQueue@@QAEXPAVCXnBase@@@Z=$000D28FE;CPacketQueue.scard const volatile  // ## UNPATCHED ## - 
?Discontinuity@CMcpxStream@DirectSound@@QAEJXZ=$00083970;DirectSound.CMcpxStream.scontinuity const volatile  // ## UNPATCHED ## - 
?GetDolbyConfigTable@CMcpxEPDspManager@DirectSound@@QAEPAUDOLBY_CONFIG_TABLE@@XZ=$0008827A;DirectSound.CMcpxEPDspManager.tDolbyConfigTable volatile  // ## UNPATCHED ## - 
?DNSLookup@CXo@@IAEJKPAXPAUXONLINETASK_DNS_LOOKUP@@@Z=$000B37A7;double const volatile  // -- Patched -- 
?DNSLookupGetResults@CXo@@IAEJPAUXONLINETASK_HANDLE__@@PAPAUXNDNS@@@Z=$000B304B;double const volatile  // -- Patched -- 
?DoResetCache@CCacheTask@@QAEJXZ=$000C29BA;CCacheTask.ResetCache const volatile  // ## UNPATCHED ## - 
?DoReserveNameContinue@CXo@@IAEJPAUXONLINETASK_HANDLE__@@@Z=$000BD331;CXo.ReserveNameContinue const volatile  // ## UNPATCHED ## - 
?DoUpdateIndexPriv@CCacheTask@@QAEJXZ=$000C2B40;CCacheTask.UpdateIndexPriv const volatile  // ## UNPATCHED ## - 
?DoUpdateMRUListPriv@CCacheTask@@QAEJXZ=$000C2AF0;CCacheTask.UpdateMRUListPriv const volatile  // ## UNPATCHED ## - 
?DoWork@CDirectSound@DirectSound@@QAGXXZ=$000809FC;DirectSound.CDirectSound.Work const volatile  // ## UNPATCHED ## - 
?Dpc@CMiniport@D3D@@SGXPAU_KDPC@@PAX11@Z=$0006E9F0;D3D.CMiniport.c const volatile  // ## UNPATCHED ## - 
?DrawSubset@?$GXTri3Mesh@G$00$0PPPP@@@UAGJK@Z=$0007B1F2;GXTri3Mesh<unsigned short,1,65535>.awSubset const volatile  // ## UNPATCHED ## - 
?DrawSubset@?$GXTri3Mesh@I$0A@$0?0@@UAGJK@Z=$0007AAC6;GXTri3Mesh<unsigned int,0,-1>.awSubset const volatile  // ## UNPATCHED ## - 
?PRIMITIVE_LAUNCH_STATE_TEST@D3D@@YGXXZ=$0006C090;unsigned int const volatile  // -- Patched -- 
_D3DPERF_SetMarker=$0006C1B0;D3DPERF.SetMarker // -- Patched -- 
?DumpMatrixTransposed@D3D@@YGXPCKKPBU_D3DMATRIX@@@Z=$0006BEF0;D3D.mpMatrixTransposed const volatile  // ## UNPATCHED ## - 
?EnableTimer@CMiniport@D3D@@AAEXH@Z=$0006EF7A;D3D.CMiniport.bleTimer // ## UNPATCHED ## - 
?EncodeFormat@PixelJar@D3D@@YGKKKKKW4_D3DFORMAT@@KHHPAK1@Z=$0006D960;D3D.PixelJar.odeFormat // ## UNPATCHED ## - 
?EncryptSessionKey@CXo@@IAEXPAE0@Z=$000B341C;CXo.ryptSessionKey // ## UNPATCHED ## - 
?EnetArpFlush@CXnEnet@@QAEXH@Z=$000DBCEF;CXnEnet.tArpFlush // ## UNPATCHED ## - 
?EnetFillAndXmit@CXnEnet@@AAEXPAVCPacket@@PAUCEnetAddr@@@Z=$000DBD86;CXnEnet.tFillAndXmit // ## UNPATCHED ## - 
?EnetPush@CXbdmClient@CXnNic@@UAEXXZ=$000D35C5;CXnNic.CXbdmClient.tPush // ## UNPATCHED ## - 
?EnetPush@CXnEnet@@QAEXXZ=$000DC263;CXnEnet.tPush // -- Patched -- 
?EnetQueuePush@CXnEnet@@IAEXXZ=$000DBDC0;CXnEnet.tQueuePush // ## UNPATCHED ## - 
?EnetRecv@CXbdmClient@CXnNic@@UAEXIPAXII@Z=$000D3583;CXnNic.CXbdmClient.tRecv // ## UNPATCHED ## - 
?EnetRecv@CXnEnet@@IAEXPAVCPacket@@I@Z=$000DC443;CXnEnet.tRecv // ## UNPATCHED ## - 
?EnetStop@CXnEnet@@QAEXXZ=$000DBD57;CXnEnet.tStop // ## UNPATCHED ## - 
?EnetTerm@CXnEnet@@IAEXXZ=$000DBDD8;CXnEnet.tTerm // ## UNPATCHED ## - 
?EnetXmit@CXnEnet@@QAEXPAVCPacket@@UCIpAddr@@@Z=$000DBE14;CXnEnet.tXmit // ## UNPATCHED ## - 
?EnetXmitArp@CXnEnet@@QAEXUCIpAddr@@0@Z=$000DC409;CXnEnet.tXmitArp // ## UNPATCHED ## - 
?EnqueueChild@CTcpSocket@@QAEXPAV1@@Z=$000D9A12;CTcpSocket.ueueChild // ## UNPATCHED ## - 
?EventTimer@CXnIp@@QAEXPAVCTimer@@@Z=$000CDD9B;CXnIp.ntTimer // ## UNPATCHED ## - 
?Exp@D3D@@YGMM@Z=$0006D110;D3D. // ## UNPATCHED ## - 
?Explut@D3D@@YGXMPAM0@Z=$0006C9B0;D3D.lut // ## UNPATCHED ## - 
?ExtensibleToInternalFormat@WaveFormat@DirectSound@@YGKPAUDSWAVEFORMAT@@PBUWAVEFORMATEXTENSIBLE@@@Z=$000823A1;DirectSound.WaveFormat.ensibleToInternalFormat // ## UNPATCHED ## - 
?FastCopyToWC@D3D@@YGXPCKPAKK@Z=$00069580;D3D.tCopyToWC // ## UNPATCHED ## - 
?FindChild@IUsbDevice@@QBEPAV1@E@Z=$000E06F3;IUsbDevice.dChild // ## UNPATCHED ## - 
?FindFence@D3D@@YGPAUFence@1@K@Z=$0006C0A0;D3D.dFence // ## UNPATCHED ## - 
?FindInIndex@CLocalCache@@QAEHHPAUXONLC_CONTEXT@@@Z=$000C309C;CLocalCache.dInIndex // ## UNPATCHED ## - 
?FindInMRUList@CLocalCache@@QAEHHPAUXONLC_CONTEXT@@@Z=$000C2F08;CLocalCache.dInMRUList // ## UNPATCHED ## - 
?FindSurfaceWithinTexture@PixelJar@D3D@@YGXPAUD3DPixelContainer@@W4_D3DCUBEMAP_FACES@@IPAPAEPAK333@Z=$0006D680;D3D.PixelJar.dSurfaceWithinTexture // ## UNPATCHED ## - 
?FindWedge@?$GXTri3Mesh@G$00$0PPPP@@@ABEIPAGI@Z=$0007940C;GXTri3Mesh<unsigned short,1,65535>.dWedge // ## UNPATCHED ## - 
?FindWedge@?$GXTri3Mesh@I$0A@$0?0@@ABEIPAII@Z=$000793E3;GXTri3Mesh<unsigned int,0,-1>.dWedge // ## UNPATCHED ## - 
?FinishAsyncWork@CCacheTask@@AAEXXZ=$000C208D;CCacheTask.ishAsyncWork // ## UNPATCHED ## - 
?FixupPushBuffer@CMiniport@D3D@@QAEXPAUPUSHBUFFERFIXUPINFO@12@H@Z=$0006E3E0;D3D.CMiniport.upPushBuffer // ## UNPATCHED ## - 
?FloatToLong@D3D@@YGJM@Z=$0006D0F0;D3D.atToLong // ## UNPATCHED ## - 
?FloatToLong@Math@DirectSound@@YGJM@Z=$000862EE;DirectSound.Math.atToLong // ## UNPATCHED ## - 
?Flush@CAc97Channel@DirectSound@@QAEXH@Z=$00087CE7;DirectSound.CAc97Channel.sh // ## UNPATCHED ## - 
?Flush@CMcpxStream@DirectSound@@IAEXH@Z=$00083A64;DirectSound.CMcpxStream.sh // ## UNPATCHED ## - 
?FlushEx@CDirectSoundStream@DirectSound@@QAGJ_JK@Z=$00081299;DirectSound.CDirectSoundStream.shEx // ## UNPATCHED ## - 
_IDirectSoundStream_FlushEx@16=$00081528;IDirectSoundStream.FlushEx // ## UNPATCHED ## - 
?ForceCompletion@CCacheTask@@QAEXXZ=$000C209D;CCacheTask.ceCompletion // ## UNPATCHED ## - 
?xsnprintf@@YAHPADIPBDZZ=$000C42E2;nprintf // ## UNPATCHED ## - 
?FragFree@CXnIp@@AAEXPAVCPacket@@@Z=$000CDBF8;CXnIp.gFree // ## UNPATCHED ## - 
?FragRecv@CXnIp@@AAEXPAVCPacket@@PAUCIpHdr@@II@Z=$000D1E31;CXnIp.gRecv // ## UNPATCHED ## - 
?FragTerm@CXnIp@@AAEXXZ=$000CE12D;CXnIp.gTerm // ## UNPATCHED ## - 
?FragTimer@CXnIp@@AAEXPAVCTimer@@@Z=$000CDC2C;CXnIp.gTimer // ## UNPATCHED ## - 
?Free@CMcpxBufferSgeHeap@DirectSound@@QAEXPAUSGEHEAPRUNMARKER@@@Z=$00086BC7;DirectSound.CMcpxBufferSgeHeap.e // ## UNPATCHED ## - 
?Free@CMcpxSlopMemoryHeap@DirectSound@@QAEXPAX@Z=$00086B2E;DirectSound.CMcpxSlopMemoryHeap.e // ## UNPATCHED ## - 
?FreeDevice@CDeviceTree@@QAEXPAVIUsbDevice@@@Z=$000DF695;CDeviceTree.eDevice // ## UNPATCHED ## - 
?FreeRun@CMcpxBufferSgeHeap@DirectSound@@IAEXPAUSGEHEAPRUNMARKER@@@Z=$00086AB7;DirectSound.CMcpxBufferSgeHeap.eRun // ## UNPATCHED ## - 
?FriendsContinue@CXo@@IAEJPAUXONLINETASK_HANDLE__@@@Z=$000B8F46;CXo.endsContinue // ## UNPATCHED ## - 
?FriendlistRefresh@CXo@@IAEJPAUXPRESENCE_EXTENDED_HANDLE@@@Z=$000B86FC;CXo.endlistRefresh // ## UNPATCHED ## - 
?FVFSize@@YAKK@Z=$0007A729; ?? . ?? .Z.AKK const  // ## UNPATCHED ## - 
?GenerateAdjacency@?$GXTri3Mesh@G$00$0PPPP@@@UAGJMPAK@Z=$0007DAC1;GXTri3Mesh<unsigned short,1,65535>.nerateAdjacency volatile  // ## UNPATCHED ## - 
?GenerateAdjacency@?$GXTri3Mesh@I$0A@$0?0@@UAGJMPAK@Z=$0007D63C;GXTri3Mesh<unsigned int,0,-1>.nerateAdjacency volatile  // ## UNPATCHED ## - 
?Get1PoleLoPass@CI3dl2Source@DirectSound@@AAEHJJMM@Z=$00086373;DirectSound.CI3dl2Source.t1PoleLoPass volatile  // ## UNPATCHED ## - 
?Get2DSurfaceDesc@PixelJar@D3D@@YGXPAUD3DPixelContainer@@IPAU_D3DSURFACE_DESC@@@Z=$0006D5C0;D3D.PixelJar.t2DSurfaceDesc volatile  // -- Patched -- 
?GetAddressFromURL@CXo@@IAEJQADPAUsockaddr_in@@PAPAD@Z=$000C83FE;CXo.tAddressFromURL volatile  // ## UNPATCHED ## - 
?GetAddressInfo@CMiniport@D3D@@AAEXPAXPAPAXPAKH@Z=$0006ED41;D3D.CMiniport.tAddressInfo volatile  // ## UNPATCHED ## - 
?GetInterfaceDescriptor@IUsbDevice@@QBEPBU_USB_INTERFACE_DESCRIPTOR@@XZ=$000E0581;IUsbDevice.tInterfaceDescriptor volatile  // ## UNPATCHED ## - 
?YaccIsEof@@YAHXZ=$000263A8; ?? .AHXZ // -- Patched -- 
_GetProcessHeap@0=$0003C7C0;GetProcessHeap // -- Patched -- 
?GetPort@IUsbDevice@@QBEKXZ=$000E05FD;IUsbDevice.tPort volatile  // ## UNPATCHED ## - 
?GetAttributeTable@?$GXTri3Mesh@I$0A@$0?0@@UAGJPAU_D3DXATTRIBUTERANGE@@PAK@Z=$00079289;GXTri3Mesh<unsigned int,0,-1>.tAttributeTable volatile  // ## UNPATCHED ## - 
?GetBufferPointer@CD3DXBuffer@@UAGPAXXZ=$0008057B;CD3DXBuffer.tBufferPointer volatile  // ## UNPATCHED ## - 
?GetBufferSize@CD3DXBuffer@@UAGKXZ=$0003FC07;CD3DXBuffer.tBufferSize volatile  // -- Patched -- 
?GetNumBones@CD3DXSkinMesh@@UAGKXZ=$00080585;CD3DXSkinMesh.tNumBones volatile  // ## UNPATCHED ## - 
?GetCacheTask@CXo@@IAEPAUXONLINETASK_HANDLE__@@PAVCLocalCache@@@Z=$000C1F20;CXo.tCacheTask volatile  // ## UNPATCHED ## - 
?GetCbBpp@CPacket@@SGIUCIpPort@@0@Z=$000D2803;CPacket.tCbBpp volatile  // ## UNPATCHED ## - 
?GetColorMaterial@D3D@@YGKXZ=$0006F680;D3D.tColorMaterial volatile  // ## UNPATCHED ## - 
?GetCombinedTicketClose@CXo@@IAEXPAUXONLINETASK_HANDLE__@@@Z=$000B30C7;CXo.tCombinedTicketClose volatile  // ## UNPATCHED ## - 
?GetCombinedTicketGetResults@CXo@@IAEJPAUXONLINETASK_HANDLE__@@PAPAUXKERB_TGT_CONTEXT@@PAH@Z=$000B3110;CXo.tCombinedTicketGetResults volatile  // ## UNPATCHED ## - 
?GetConnectedChild@CTcpSocket@@QAEPAV1@XZ=$000D9A7C;CTcpSocket.tConnectedChild volatile  // ## UNPATCHED ## - 
?GetCurrentPosition@CMcpxBuffer@DirectSound@@QAEJPAK0@Z=$00085A87;DirectSound.CMcpxBuffer.tCurrentPosition volatile  // ## UNPATCHED ## - 
?GetDataFromAddress@CLocalCache@@AAEXPBVCSector@@PBVCAddress@@KPAE@Z=$000C2488;CLocalCache.tDataFromAddress volatile  // ## UNPATCHED ## - 
?GetDeclaration@?$GXTri3Mesh@G$00$0PPPP@@@UAGJQAK@Z=$0007AC25;GXTri3Mesh<unsigned short,1,65535>.tDeclaration volatile  // ## UNPATCHED ## - 
?GetDepthBufferScale@PixelJar@D3D@@YGXPAUD3DPixelContainer@@PAM@Z=$0006D400;D3D.PixelJar.tDepthBufferScale volatile  // ## UNPATCHED ## - 
?GetDisplayCapabilities@CMiniport@D3D@@SGKXZ=$0006DC7B;D3D.CMiniport.tDisplayCapabilities volatile  // ## UNPATCHED ## - 
?GetEndpointDescriptor@IUsbDevice@@QBEPBU_USB_ENDPOINT_DESCRIPTOR@@EEE@Z=$000E0587;IUsbDevice.tEndpointDescriptor volatile  // ## UNPATCHED ## - 
?GetEnetHdr@CPacket@@QAEPAUCEnetHdr@@XZ=$000D2753;CPacket.tEnetHdr volatile  // ## UNPATCHED ## - 
?GetExpectedRetrieveSize@CLocalCache@@QAEKPAUXONLC_CONTEXT@@H@Z=$000C2557;CLocalCache.tExpectedRetrieveSize volatile  // ## UNPATCHED ## - 
?GetFirstChild@IUsbDevice@@QBEPAV1@XZ=$000DF6DE;IUsbDevice.tFirstChild volatile  // ## UNPATCHED ## - 
?GetFriendFromID@CXo@@IAEPAUXONLINE_FRIEND_INTERNAL@@PAUXPRESENCE_FRIEND_LIST@@_K@Z=$000B8681;CXo.tFriendFromID volatile  // ## UNPATCHED ## - 
?GetFriendFromName@CXo@@IAEPAUXONLINE_FRIEND_INTERNAL@@PAUXPRESENCE_FRIEND_LIST@@PBD@Z=$000B86BD;CXo.tFriendFromName volatile  // ## UNPATCHED ## - 
?GetFVF@?$GXTri3Mesh@G$00$0PPPP@@@UAGKXZ=$0007AA7E;GXTri3Mesh<unsigned short,1,65535>.tFVF volatile  // ## UNPATCHED ## - 
?GetGeneralInfo@CMiniport@D3D@@AAEHXZ=$0006EBE5;D3D.CMiniport.tGeneralInfo volatile  // ## UNPATCHED ## - 
?GetIndexBuffer@?$GXTri3Mesh@I$0A@$0?0@@UAGJPAPAUD3DIndexBuffer@@@Z=$00079264;GXTri3Mesh<unsigned int,0,-1>.tIndexBuffer volatile  // ## UNPATCHED ## - 
?SetNotificationPositions@CDirectSoundBuffer@DirectSound@@QAGJKPBU_DSBPOSITIONNOTIFY@@@Z=$00080F46;unsigned short * volatile  // -- Patched -- 
?GetIndexItemAddress@CLocalCache@@AAEHK@Z=$000C21CE;CLocalCache.tIndexItemAddress volatile  // -- Patched -- 
?GetInfo@CDirectSoundStream@DirectSound@@UAGJPAU_XMEDIAINFO@@@Z=$00081081;DirectSound.CDirectSoundStream.tInfo volatile  // -- Patched -- 
?GetInterfaceNumber@IUsbDevice@@QBEEXZ=$000E0499;IUsbDevice.tInterfaceNumber volatile  // ## UNPATCHED ## - 
?GetIpHdrNext@CPacket@@QAEPAEXZ=$000D2767;CPacket.tIpHdrNext volatile  // ## UNPATCHED ## - 
?GetMachineAccount@CXo@@IAEJHPAXPAPAUXONLINETASK_HANDLE__@@@Z=$000B457D;CXo.tMachineAccount volatile  // ## UNPATCHED ## - 
?GetMachineAccountContinue@CXo@@IAEJPAUXONLINETASK_HANDLE__@@@Z=$000B4108;CXo.tMachineAccountContinue volatile  // ## UNPATCHED ## - 
?GetMachineAccountClose@CXo@@IAEXPAUXONLINETASK_HANDLE__@@@Z=$000B44F5;CXo.tMachineAccountClose volatile  // -- Patched -- 
?GetMachineAccountSendAsRequest@CXo@@IAEJPAUXONLINETASK_GET_MACHINE_ACCOUNT@@@Z=$000B3E63;CXo.tMachineAccountSendAsRequest volatile  // -- Patched -- 
?GetMaxDeviceTypeCount@IUsbInit@@QAEKPAU_XPP_DEVICE_TYPE@@@Z=$000DD346;IUsbInit.tMaxDeviceTypeCount volatile  // ## UNPATCHED ## - 
?GetNextFace@?$CFaceListIter@G$00$0PPPP@@@QAEGXZ=$0007BDBE;CFaceListIter<unsigned short,1,65535>.tNextFace volatile  // ## UNPATCHED ## - 
?GetMRUItemAddress@CLocalCache@@AAEHK@Z=$000C2151;CLocalCache.tMRUItemAddress volatile  // ## UNPATCHED ## - 
?GetNextFace@?$CFaceListIter@I$0A@$0?0@@QAEIXZ=$0007BCFB;CFaceListIter<unsigned int,0,-1>.tNextFace volatile  // ## UNPATCHED ## - 
?GetNumFaces@?$GXTri3Mesh@I$0A@$0?0@@UAGKXZ=$0007AA6A;GXTri3Mesh<unsigned int,0,-1>.tNumFaces volatile  // ## UNPATCHED ## - 
?GetNumVertices@?$GXTri3Mesh@I$0A@$0?0@@UAGKXZ=$0007AA74;GXTri3Mesh<unsigned int,0,-1>.tNumVertices volatile  // ## UNPATCHED ## - 
?GetOpt@CDhcpHdr@@QAEHIEIHPAPAEPAI@Z=$000D683F;CDhcpHdr.tOpt volatile  // ## UNPATCHED ## - 
?GetOpt@CDhcpHdr@@SGHPAEIEIHPAPAEPAI0@Z=$000D61C4;CDhcpHdr.tOpt volatile  // ## UNPATCHED ## - 
?GetParent@IUsbDevice@@QBEPAV1@XZ=$000DF6C7;IUsbDevice.tParent volatile  // ## UNPATCHED ## - 
?GetPbDat@CPacket@@QAEPAEXZ=$000D2844;CPacket.tPbDat volatile  // ## UNPATCHED ## - 
?GetPbVoi@CPacket@@QAEPAEXZ=$000D287D;CPacket.tPbVoi volatile  // ## UNPATCHED ## - 
?GetPhysicalMemoryProperties@CMcpxCore@DirectSound@@SGKPAXKPAK1@Z=$000872FE;DirectSound.CMcpxCore.tPhysicalMemoryProperties volatile  // ## UNPATCHED ## - 
?GetPitch@PixelJar@D3D@@YGKPAUD3DPixelContainer@@@Z=$000659E0;D3D.PixelJar.tPitch volatile  // ## UNPATCHED ## - 
?GetPresentFlagsFromAvInfo@CMiniport@D3D@@SGKK@Z=$0006DC3B;D3D.CMiniport.tPresentFlagsFromAvInfo volatile  // ## UNPATCHED ## - 
?GetReadWriteFileResults@CXo@@IAEJPAUXONLINETASK_HANDLE__@@PAKPAPAE@Z=$000C523E;CXo.tReadWriteFileResults volatile  // ## UNPATCHED ## - 
?GetRecordAddressFromCurrentAddress@CLocalCache@@QAEHXZ=$000C2288;CLocalCache.tRecordAddressFromCurrentAddress volatile  // ## UNPATCHED ## - 
?GetSendRecvResults@CXo@@IAEJPAUXONLINETASK_HANDLE__@@PAK1PAPAU_WSABUF@@@Z=$000C5273;CXo.tSendRecvResults volatile  // ## UNPATCHED ## - 
?GetServiceTicketGetResults@CXo@@IAEJPAUXONLINETASK_HANDLE__@@PAPAUXKERB_SERVICE_CONTEXT@@PAH@Z=$000B3148;CXo.tServiceTicketGetResults volatile  // ## UNPATCHED ## - 
?GetServiceTicketSendTgsRequest@CXo@@IAEJPAUXONLINETASK_GET_SERVICE_TICKET@@@Z=$000B4D97;CXo.tServiceTicketSendTgsRequest volatile  // ## UNPATCHED ## - 
?GetSibling@IUsbDevice@@QBEPAV1@XZ=$000DF6F5;IUsbDevice.tSibling volatile  // ## UNPATCHED ## - 
?GetSingleTicket@CXo@@IAEJHPAUXKERB_TGT_CONTEXT@@PAU_XONLINE_USER@@PAXPAPAUXONLINETASK_HANDLE__@@@Z=$000B3D69;CXo.tSingleTicket volatile  // ## UNPATCHED ## - 
?GetSingleTicketClose@CXo@@IAEXPAUXONLINETASK_HANDLE__@@@Z=$000B3CE1;CXo.tSingleTicketClose volatile  // -- Patched -- 
?GetSingleTicketContinue@CXo@@IAEJPAUXONLINETASK_HANDLE__@@@Z=$000B39E4;CXo.tSingleTicketContinue volatile  // ## UNPATCHED ## - 
?GetSingleTicketGetResults@CXo@@IAEJPAUXONLINETASK_HANDLE__@@PAPAUXKERB_TGT_CONTEXT@@@Z=$000B3073;CXo.tSingleTicketGetResults volatile  // ## UNPATCHED ## - 
?GetSingleTicketSendAsRequest@CXo@@IAEJPAUXONLINETASK_GET_SINGLE_TICKET@@@Z=$000B38C3;CXo.tSingleTicketSendAsRequest volatile  // ## UNPATCHED ## - 
?GetSize@CDnsName@@QAEIXZ=$000D3C05;CDnsName.tSize volatile  // ## UNPATCHED ## - 
?GetSize@PixelJar@D3D@@YGXPAUD3DPixelContainer@@KPAK1111@Z=$0006D470;D3D.PixelJar.tSize volatile  // ## UNPATCHED ## - 
?GetStatus@CMcpxNotifier@DirectSound@@QAEHK@Z=$00083263;DirectSound.CMcpxNotifier.tStatus volatile  // ## UNPATCHED ## - 
?GetSlice@PixelJar@D3D@@YGKPAUD3DPixelContainer@@@Z=$00067330;D3D.PixelJar.tSlice volatile  // ## UNPATCHED ## - 
?GetSslPosition@CMcpxVoiceClient@DirectSound@@IAEKXZ=$00084CD7;DirectSound.CMcpxVoiceClient.tSslPosition volatile  // ## UNPATCHED ## - 
?GetStatus@CMcpxBuffer@DirectSound@@QAEJPAK@Z=$00085A45;DirectSound.CMcpxBuffer.tStatus volatile  // ## UNPATCHED ## - 
?GetStringWithoutNamespacePrefix@CXo@@IAEPADQBDQBUtagPARSEXML_STACKENTRY@@QBU_PARSEXML_SUBELEMENT@@K@Z=$000C8246;CXo.tStringWithoutNamespacePrefix volatile  // ## UNPATCHED ## - 
?GetSurfaceFormat@PixelJar@D3D@@YGKPAUD3DPixelContainer@@0@Z=$0006D2E0;D3D.PixelJar.tSurfaceFormat volatile  // ## UNPATCHED ## - 
?GetTableForCurrentAvInfo@D3D@@YGPBUDISPLAYMODE@1@XZ=$0006DC9A;D3D.tTableForCurrentAvInfo volatile  // ## UNPATCHED ## - 
?GetTcpInfo@CPacket@@QAEPAUCTcpInfo@@XZ=$000D2B5B;CPacket.tTcpInfo volatile  // ## UNPATCHED ## - 
?GetTexCoordSizes@DXCrackFVF@@QAEXPAK@Z=$0007937A;DXCrackFVF.tTexCoordSizes volatile  // ## UNPATCHED ## - 
?GetTimerTime@CMiniport@D3D@@AAE_KXZ=$0006EF65;D3D.CMiniport.tTimerTime volatile  // ## UNPATCHED ## - 
?GetTotalSectors@CLocalCache@@AAEKXZ=$000C2DCD;CLocalCache.tTotalSectors volatile  // ## UNPATCHED ## - 
?GetTypeInformation@@YIPAU_XID_TYPE_INFORMATION@@PAU_XPP_DEVICE_TYPE@@@Z=$000E4ABA;tTypeInformation volatile  // ## UNPATCHED ## - 
?GetTime@CMiniport@D3D@@QAEKXZ=$0006DFA0;D3D.CMiniport.tTime volatile  // ## UNPATCHED ## - 
?GetTypeInformation@@YIPAU_XID_TYPE_INFORMATION@@EPAE@Z=$000E4A83;tTypeInformation volatile  // ## UNPATCHED ## - 
?GetVertexBuffer@?$GXTri3Mesh@I$0A@$0?0@@UAGJPAPAUD3DVertexBuffer@@@Z=$0007923F;GXTri3Mesh<unsigned int,0,-1>.tVertexBuffer volatile  // ## UNPATCHED ## - 
?GetWorkAddress@CLocalCache@@QAEXPAVCAddress@@@Z=$000C243F;CLocalCache.tWorkAddress volatile  // ## UNPATCHED ## - 
?GetXspInfo@CPacket@@QAEXPAI0000PAE1@Z=$000D210E;CPacket.tXspInfo volatile  // ## UNPATCHED ## - 
?GPUScale@D3D@@YGXPAUD3DSurface@@0M@Z=$00068FC0;PAUD3DSurface [ ?? ] // ## UNPATCHED ## - 
?HalDacControlInit@CMiniport@D3D@@AAEXXZ=$00071C95;D3D.CMiniport.lDacControlInit const volatile  // ## UNPATCHED ## - 
?HalDacLoad@CMiniport@D3D@@AAEXXZ=$000720B0;D3D.CMiniport.lDacLoad const volatile  // ## UNPATCHED ## - 
?HalFifoAllocDMA@CMiniport@D3D@@AAEXKKKPAUOBJECTINFO@12@@Z=$000720C2;D3D.CMiniport.lFifoAllocDMA const volatile  // ## UNPATCHED ## - 
?HalFbControlInit@CMiniport@D3D@@AAEXXZ=$00071B97;D3D.CMiniport.lFbControlInit const volatile  // ## UNPATCHED ## - 
?HalFifoContextSwitch@CMiniport@D3D@@AAEXK@Z=$00071EB3;D3D.CMiniport.lFifoContextSwitch const volatile  // ## UNPATCHED ## - 
?HalFifoControlInit@CMiniport@D3D@@AAEXXZ=$00071DCA;D3D.CMiniport.lFifoControlInit const volatile  // ## UNPATCHED ## - 
?HalFifoControlLoad@CMiniport@D3D@@AAEXXZ=$00072DFF;D3D.CMiniport.lFifoControlLoad const volatile  // ## UNPATCHED ## - 
?HalFifoHashAdd@CMiniport@D3D@@AAEXKKKKK@Z=$0007224F;D3D.CMiniport.lFifoHashAdd const volatile  // ## UNPATCHED ## - 
?HalGrControlInit@CMiniport@D3D@@AAEXXZ=$00071D9A;D3D.CMiniport.lGrControlInit const volatile  // ## UNPATCHED ## - 
?HalGrControlLoad@CMiniport@D3D@@AAEXXZ=$00072E80;D3D.CMiniport.lGrControlLoad const volatile  // ## UNPATCHED ## - 
?HalGrIdle@CMiniport@D3D@@AAEXXZ=$00071E3B;D3D.CMiniport.lGrIdle const volatile  // ## UNPATCHED ## - 
?HalGrInit3d@CMiniport@D3D@@AAEXXZ=$000722FD;D3D.CMiniport.lGrInit3d const volatile  // ## UNPATCHED ## - 
?HalGrLoadChannelContext@CMiniport@D3D@@AAEXK@Z=$00072CDC;D3D.CMiniport.lGrLoadChannelContext const volatile  // ## UNPATCHED ## - 
?HalGrInitObjectContext@CMiniport@D3D@@AAEXKK@Z=$00072288;D3D.CMiniport.lGrInitObjectContext const volatile  // ## UNPATCHED ## - 
?HalGrUnloadChannelContext@CMiniport@D3D@@AAEXK@Z=$00071E7A;D3D.CMiniport.lGrUnloadChannelContext const volatile  // ## UNPATCHED ## - 
?HalQueryTsc@@YGXPAT_LARGE_INTEGER@@@Z=$000D9131;lQueryTsc const volatile  // ## UNPATCHED ## - 
?HalMcControlInit@CMiniport@D3D@@AAEXXZ=$00071A30;D3D.CMiniport.lMcControlInit const volatile  // ## UNPATCHED ## - 
?HalTscToUsec@@YGKPAT_LARGE_INTEGER@@@Z=$000D9143;lTscToUsec const volatile  // ## UNPATCHED ## - 
?HalShutdownNotification@CXnNic@@CGXPAU_HAL_SHUTDOWN_REGISTRATION@@@Z=$000D351D;CXnNic.lShutdownNotification const volatile  // ## UNPATCHED ## - 
?HalVideoControlInit@CMiniport@D3D@@AAEXXZ=$00071D64;D3D.CMiniport.lVideoControlInit const volatile  // ## UNPATCHED ## - 
?HandleDeltaPanic@CMcpxAPU@DirectSound@@IAEXXZ=$00082905;DirectSound.CMcpxAPU.ndleDeltaPanic const volatile  // ## UNPATCHED ## - 
?HandleFETrap@CMcpxAPU@DirectSound@@IAEXXZ=$00082EFB;DirectSound.CMcpxAPU.ndleFETrap const volatile  // ## UNPATCHED ## - 
?HashFind@@YAKKKPAPAUhashentry@@KK@Z=$0007AE73;shFind const volatile  // ## UNPATCHED ## - 
?HandleSoftwareMethod@CMcpxAPU@DirectSound@@IAEXKK@Z=$00082E7A;DirectSound.CMcpxAPU.ndleSoftwareMethod const volatile  // ## UNPATCHED ## - 
?HexStringToUlonglong@CXo@@IAEJPADKPA_K@Z=$000C5054;CXo.xStringToUlonglong const volatile  // ## UNPATCHED ## - 
_htons@4=$000CC727;htons // ## UNPATCHED ## - 
?IdleVoiceProcessor@CMcpxCore@DirectSound@@QAEHH@Z=$000877AF;DirectSound.CMcpxCore.eVoiceProcessor // ## UNPATCHED ## - 
?IFindNextFace@?$CMeshStatus@G$00$0PPPP@@@QAEGG@Z=$0007D358;CMeshStatus<unsigned short,1,65535>.dNextFace // ## UNPATCHED ## - 
?IFindInitialFace@?$CMeshStatus@G$00$0PPPP@@@QAEGXZ=$0007A0AA;CMeshStatus<unsigned short,1,65535>.dInitialFace // ## UNPATCHED ## - 
?IFindInitialFace@?$CMeshStatus@I$0A@$0?0@@QAEIXZ=$0007A08B;CMeshStatus<unsigned int,0,-1>.dInitialFace // ## UNPATCHED ## - 
?IFindNextFace@?$CMeshStatus@I$0A@$0?0@@QAEII@Z=$0007D109;CMeshStatus<unsigned int,0,-1>.dNextFace // ## UNPATCHED ## - 
?IncrementAddress@CAddress@@QAEXK@Z=$000C1F87;CAddress.rementAddress // ## UNPATCHED ## - 
?IncrementBusyHubCount@IUsbDevice@@SGXXZ=$000DF8D3;IUsbDevice.rementBusyHubCount // ## UNPATCHED ## - 
?IsParamSupported@CBasicTrack@@UAGJABU_GUID@@@Z=$00031AC2;CBasicTrack.amSupported // ## UNPATCHED ## - 
?Init@?$CFaceListIter@G$00$0PPPP@@@QAEXGGE@Z=$0007B9A0;CFaceListIter<unsigned short,1,65535>.t // ## UNPATCHED ## - 
?Init@?$CFaceListIter@I$0A@$0?0@@QAEXIIE@Z=$0007B942;CFaceListIter<unsigned int,0,-1>.t // ## UNPATCHED ## - 
?Init@?$CIndexQueue@G$0PPPP@@@QAEJXZ=$0007A165;CIndexQueue<unsigned short,65535>.t // ## UNPATCHED ## - 
?Init@?$CIndexQueue@I$0?0@@QAEJXZ=$0007A0D3;CIndexQueue<unsigned int,-1>.t // ## UNPATCHED ## - 
?Init@?$CMeshStatus@G$00$0PPPP@@@QAEJGG_N@Z=$0007D1E1;CMeshStatus<unsigned short,1,65535>.t // ## UNPATCHED ## - 
?Init@?$CMeshStatus@I$0A@$0?0@@QAEJII_N@Z=$0007CFB8;CMeshStatus<unsigned int,0,-1>.t // ## UNPATCHED ## - 
?Init@CD3DXBuffer@@QAEJK@Z=$00080548;CD3DXBuffer.t // ## UNPATCHED ## - 
?Init@CDeviceTree@@QAEXKK@Z=$000DD6DC;CDeviceTree.t // ## UNPATCHED ## - 
?InitDMAChannel@CMiniport@D3D@@QAEHKPAUOBJECTINFO@12@0KPAPAX@Z=$0006EB23;D3D.CMiniport.tDMAChannel // ## UNPATCHED ## - 
?InitEngines@CMiniport@D3D@@AAEHXZ=$0006EC26;D3D.CMiniport.tEngines // ## UNPATCHED ## - 
?AddRef@CDirectSoundBuffer@DirectSound@@UAGKXZ=$0008090D;DirectSound.CDirectSoundBuffer.dRef // -- Patched -- 
?AddRef@CDirectSoundStream@DirectSound@@UAGKXZ=$00080FEC;DirectSound.CDirectSoundStream.dRef // ## UNPATCHED ## - 
_D3DDevice_BlockUntilIdle@0=$00067240;D3DDevice.BlockUntilIdle // -- Patched -- 
_D3DResource_BlockUntilNotBusy@4=$0006AA60;D3DResource.BlockUntilNotBusy // -- Patched -- 
_D3DTexture_GetLevelDesc@12=$0006AE90;D3DTexture.GetLevelDesc // ## UNPATCHED ## - 
?AddToDynamicArray@@YAHPAPAIABIPAI2@Z=$0007989E;dToDynamicArray // ## UNPATCHED ## - 
?AddRun@CMcpxSlopMemoryHeap@DirectSound@@QAEHPAXKK@Z=$0008688D;DirectSound.CMcpxSlopMemoryHeap.dRun // ## UNPATCHED ## - 
?AddToDynamicArray@@YAHPAPAGABGPAI2@Z=$00079930;dToDynamicArray // ## UNPATCHED ## - 
?AddVectors3@D3D@@YGXPAU_D3DVECTOR@@PBU2@1@Z=$0006C820;D3D.dVectors3 // ## UNPATCHED ## - 
?AdpcmToInternalFormat@WaveFormat@DirectSound@@YGXPAUDSWAVEFORMAT@@PBUxbox_adpcmwaveformat_tag@@@Z=$0008237A;DirectSound.WaveFormat.pcmToInternalFormat // ## UNPATCHED ## - 
?Alloc@CMcpxBufferSgeHeap@DirectSound@@QAEPAUSGEHEAPRUNMARKER@@PAXK@Z=$00086A28;DirectSound.CMcpxBufferSgeHeap.loc // ## UNPATCHED ## - 
?Alloc@CMcpxSlopMemoryHeap@DirectSound@@QAEPAXK@Z=$00086911;DirectSound.CMcpxSlopMemoryHeap.loc // ## UNPATCHED ## - 
?AllocateApuMemory@CMcpxCore@DirectSound@@IAEJXZ=$0008762F;DirectSound.CMcpxCore.locateApuMemory // ## UNPATCHED ## - 
?AllocateContext@CMcpxCore@DirectSound@@SGJPAUMCPX_ALLOC_CONTEXT@@KK@Z=$000873B2;DirectSound.CMcpxCore.locateContext // ## UNPATCHED ## - 
?AllocateVoiceResources@CMcpxVoiceClient@DirectSound@@IAEJXZ=$00084D97;DirectSound.CMcpxVoiceClient.locateVoiceResources // ## UNPATCHED ## - 
?AllocDevice@CDeviceTree@@QAEPAVIUsbDevice@@XZ=$000DE9A6;CDeviceTree.locDevice // ## UNPATCHED ## - 
?AllocRun@CMcpxBufferSgeHeap@DirectSound@@IAEPAUSGEHEAPRUNMARKER@@PAXG@Z=$00086691;DirectSound.CMcpxBufferSgeHeap.locRun // ## UNPATCHED ## - 
?and@@YIXPCGG@Z=$00085656;d // ## UNPATCHED ## - 
?ApplyLGSFix@CMiniport@D3D@@QAEXXZ=$0006F066;D3D.CMiniport.plyLGSFix // ## UNPATCHED ## - 
?ApuInterruptServiceRoutine@CMcpxAPU@DirectSound@@CGEPAU_KINTERRUPT@@PAX@Z=$000830B4;DirectSound.CMcpxAPU.uInterruptServiceRoutine // -- Patched -- 
?NicIsr@CXnNic@@CGEPAU_KINTERRUPT@@PAX@Z=$000D2F96;CXnNic.Isr const  // ## UNPATCHED ## - 
?ArpLookup@CXnEnet@@AAEPAUCArpEntry@1@UCIpAddr@@W4ArpResolve@1@@Z=$000DBF07;CXnEnet.pLookup // ## UNPATCHED ## - 
?ArpRecv@CXnEnet@@AAEXPAVCPacket@@@Z=$000DC0A3;CXnEnet.pRecv // ## UNPATCHED ## - 
?ArpTimer@CXnEnet@@AAEXPAVCTimer@@@Z=$000DBFF0;CXnEnet.pTimer // ## UNPATCHED ## - 
?ArpXmit@CXnEnet@@AAEXGUCIpAddr@@0PAUCEnetAddr@@@Z=$000DBE50;CXnEnet.pXmit // ## UNPATCHED ## - 
?ASN1_CloseDecoder@@YGXPAUASN1decoding_s@@@Z=$000C9582;UNKNOWN const * const volatile // ## UNPATCHED ## - 
?ASN1_CloseEncoder@@YGXPAUASN1encoding_s@@@Z=$000C955D;UNKNOWN const * const volatile // ## UNPATCHED ## - 
?ASN1_CloseEncoder2@@YGXPAUASN1encoding_s@@@Z=$000C9573;UNKNOWN const * const volatile // ## UNPATCHED ## - 
?ASN1_CreateEncoder@@YG?AW4tagASN1error_e@@PAVCScratchMemoryAllocator@@PAUtagASN1module_t@@PAPAUASN1encoding_s@@PAEKPAU4@@Z=$000CA4D4;UNKNOWN const * const volatile // ## UNPATCHED ## - 
?ASN1_CreateDecoder@@YG?AW4tagASN1error_e@@PAVCScratchMemoryAllocator@@PAUtagASN1module_t@@PAPAUASN1decoding_s@@PAEKPAU4@@Z=$000C9E24;UNKNOWN const * const volatile // ## UNPATCHED ## - 
?ASN1_Decode@@YG?AW4tagASN1error_e@@PAUASN1decoding_s@@PAPAXKKPAEK@Z=$000CA5B1;__int8 const * const volatile // ## UNPATCHED ## - 
?ASN1_Encode@@YG?AW4tagASN1error_e@@PAUASN1encoding_s@@PAXKKPAEK@Z=$000CB018;unsigned __int8 const * const volatile // ## UNPATCHED ## - 
?ASN1_FreeDecoded@@YGXPAUASN1decoding_s@@PAXK@Z=$000C9598;__int16 const * const volatile // ## UNPATCHED ## - 
_XapiShutdownChannelStartPacket@8=$0003FCF0;XapiShutdownChannelStartPacket // ## UNPATCHED ## - 
?ASN1_InitModule@@YGXPAUtagASN1module_t@@KW4ASN1encodingrule_e@@KKQBQ6GXXZ2QBQ6GXPAX@ZQBKK@Z=$000C95CB;unsigned __int32 const * const volatile // ## UNPATCHED ## - 
?ASN1BERDecBitString@@YGHPAUASN1decoding_s@@KPAUtagASN1bitstring_t@@@Z=$000CA8C3;ERDecBitString const * const volatile // -- Patched -- 
?ASN1BERDecOctetString@@YGHPAUASN1decoding_s@@KPAUtagASN1octetstring_t@@@Z=$000CAF0D;ERDecOctetString const * const volatile // ## UNPATCHED ## - 
?ASN1BERDecCharString@@YGHPAUASN1decoding_s@@KPAUtagASN1charstring_t@@@Z=$000CA8D9;ERDecCharString const * const volatile // ## UNPATCHED ## - 
?ASN1BERDecCheck@@YGHPAUASN1decoding_s@@K@Z=$000C9EF0;ERDecCheck const * const volatile // ## UNPATCHED ## - 
?ASN1BERDecEndOfContents@@YGHPAUASN1decoding_s@@0PAE@Z=$000CA2EF;ERDecEndOfContents const * const volatile // ## UNPATCHED ## - 
?ASN1BERDecExplicitTag@@YGHPAUASN1decoding_s@@KPAPAU1@PAPAE@Z=$000CA0F4;ERDecExplicitTag const * const volatile // ## UNPATCHED ## - 
?ASN1BERDecFlush@@YGHPAUASN1decoding_s@@@Z=$000C9ECD;ERDecFlush const * const volatile // ## UNPATCHED ## - 
?ASN1BERDecGeneralizedTime@@YGHPAUASN1decoding_s@@KPAUtagASN1generalizedtime_t@@@Z=$000CB152;ERDecGeneralizedTime const * const volatile // ## UNPATCHED ## - 
?ASN1BERDecLength@@YGHPAUASN1decoding_s@@PAK1@Z=$000CA01B;ERDecLength const * const volatile // ## UNPATCHED ## - 
?ASN1BERDecNotEndOfContents@@YGHPAUASN1decoding_s@@PBE@Z=$000CA36A;ERDecNotEndOfContents const * const volatile // ## UNPATCHED ## - 
_WaitForSingleObject@8=$0003A466;WaitForSingleObject // ## UNPATCHED ## - 
?ASN1BERDecPeekTag@@YGHPAUASN1decoding_s@@PAK@Z=$000CA163;ERDecPeekTag const * const volatile // ## UNPATCHED ## - 
?ASN1BERDecS32Val@@YGHPAUASN1decoding_s@@KPAJ@Z=$000CA9FA;ERDecS32Val const * const volatile // ## UNPATCHED ## - 
?ASN1BERDecTag@@YGHPAUASN1decoding_s@@KPAK@Z=$000C9F89;ERDecTag const * const volatile // ## UNPATCHED ## - 
?ASN1BERDecU32Val@@YGHPAUASN1decoding_s@@KPAK@Z=$000CA1EE;ERDecU32Val const * const volatile // ## UNPATCHED ## - 
?ASN1BERDecZeroCharString@@YGHPAUASN1decoding_s@@KPAPAD@Z=$000CAACE;ERDecZeroCharString const * const volatile // ## UNPATCHED ## - 
?ASN1BEREncBitString@@YGHPAUASN1encoding_s@@KKPAE@Z=$000CB2A5;EREncBitString const * const volatile // ## UNPATCHED ## - 
?ASN1BEREncBool@@YGHPAUASN1encoding_s@@KE@Z=$000CAD36;EREncBool const * const volatile // ## UNPATCHED ## - 
?ASN1BEREncCharString@@YGHPAUASN1encoding_s@@KKPAD@Z=$000CB18F;EREncCharString const * const volatile // ## UNPATCHED ## - 
?ASN1BEREncEndOfContents@@YGHPAUASN1encoding_s@@K@Z=$000CAF7A;EREncEndOfContents const * const volatile // ## UNPATCHED ## - 
?ASN1BEREncExplicitTag@@YGHPAUASN1encoding_s@@KPAK@Z=$000CAF23;EREncExplicitTag const * const volatile // ## UNPATCHED ## - 
?ASN1BEREncFlush@@YGHPAUASN1encoding_s@@@Z=$000CABFD;EREncFlush const * const volatile // ## UNPATCHED ## - 
?ASN1CEREncGeneralizedTime@@YGHPAUASN1encoding_s@@KPAUtagASN1generalizedtime_t@@@Z=$000CB321;signed char const * const volatile // ## UNPATCHED ## - 
?ASN1BEREncLength@@YGHPAUASN1encoding_s@@K@Z=$000CACF9;EREncLength const * const volatile // ## UNPATCHED ## - 
?ASN1BEREncS32@@YGHPAUASN1encoding_s@@KJ@Z=$000CB354;EREncS32 const * const volatile // ## UNPATCHED ## - 
?ASN1BEREncTag@@YGHPAUASN1encoding_s@@K@Z=$000CAC2E;EREncTag const * const volatile // ## UNPATCHED ## - 
?ASN1BEREncU32@@YGHPAUASN1encoding_s@@KK@Z=$000CAD77;EREncU32 const * const volatile // ## UNPATCHED ## - 
?TaskVerifyContext@CXo@@IAEXPBUXONLINETASK_CONTEXT@@@Z=$000B23D7;unsigned int const volatile  // ## UNPATCHED ## - 
?ASN1bitcpy@@YGXPAEK0KK@Z=$000C968F;itcpy const * const volatile // ## UNPATCHED ## - 
?ASN1CEREncCharString@@YGHPAUASN1encoding_s@@KKPAD@Z=$000CB1DA;signed char const * const volatile // ## UNPATCHED ## - 
?ASN1Dec_KERB_AP_REPLY@@YGHPAUASN1decoding_s@@KPAUKERB_AP_REPLY@@@Z=$000C0560;char const * const volatile // ## UNPATCHED ## - 
?ASN1Dec_KERB_ENCRYPTED_AP_REPLY@@YGHPAUASN1decoding_s@@KPAUKERB_ENCRYPTED_AP_REPLY@@@Z=$000C069A;char const * const volatile // ## UNPATCHED ## - 
?ASN1Dec_KERB_ENCRYPTED_DATA@@YGHPAUASN1decoding_s@@KPAUKERB_ENCRYPTED_DATA@@@Z=$000BFA12;char const * const volatile // ## UNPATCHED ## - 
?ASN1Dec_KERB_ENCRYPTION_KEY@@YGHPAUASN1decoding_s@@KPAUKERB_ENCRYPTION_KEY@@@Z=$000BF25E;char const * const volatile // -- Patched -- 
?ASN1Dec_PKERB_LAST_REQUEST_Seq@@YGHPAUASN1decoding_s@@KPAUPKERB_LAST_REQUEST_Seq@@@Z=$000BF1A2;char const * const volatile // -- Patched -- 
?ASN1Dec_PKERB_TICKET_EXTENSIONS_Seq@@YGHPAUASN1decoding_s@@KPAUPKERB_TICKET_EXTENSIONS_Seq@@@Z=$000BF4BA;char const * const volatile // ## UNPATCHED ## - 
?ASN1Dec_KERB_ERROR@@YGHPAUASN1decoding_s@@KPAUKERB_ERROR@@@Z=$000BF576;char const * const volatile // ## UNPATCHED ## - 
?ASN1Dec_KERB_PRINCIPAL_NAME@@YGHPAUASN1decoding_s@@KPAUKERB_PRINCIPAL_NAME@@@Z=$000BF3A3;char const * const volatile // ## UNPATCHED ## - 
?ASN1Dec_KERB_PRINCIPAL_NAME_name_string@@YGHPAUASN1decoding_s@@KPAPAUKERB_PRINCIPAL_NAME_name_string_s@@@Z=$000BF0E7;char const * const volatile // ## UNPATCHED ## - 
?ASN1Dec_KERB_TICKET@@YGHPAUASN1decoding_s@@KPAUKERB_TICKET@@@Z=$000BFD39;char const * const volatile // ## UNPATCHED ## - 
?ASN1Dec_PKERB_LAST_REQUEST@@YGHPAUASN1decoding_s@@KPAPAUPKERB_LAST_REQUEST_s@@@Z=$000BF31A;char const * const volatile // -- Patched -- 
?ASN1Dec_PKERB_TICKET_EXTENSIONS@@YGHPAUASN1decoding_s@@KPAPAUPKERB_TICKET_EXTENSIONS_s@@@Z=$000BF431;char const * const volatile // ## UNPATCHED ## - 
?ASN1DecSetError@@YG?AW4tagASN1error_e@@PAUASN1decoding_s@@W41@@Z=$000C989B;char const * const volatile // ## UNPATCHED ## - 
?ASN1Enc_KERB_CHECKSUM@@YGHPAUASN1encoding_s@@KPAUKERB_CHECKSUM@@@Z=$000C0C53;unsigned char const * const volatile // ## UNPATCHED ## - 
?ASN1Enc_KERB_PA_DATA@@YGHPAUASN1encoding_s@@KPAUKERB_PA_DATA@@@Z=$000C0ADF;unsigned char const * const volatile // -- Patched -- 
?ASN1Enc_KERB_CRED_INFO@@YGHPAUASN1encoding_s@@KPAUKERB_CRED_INFO@@@Z=$000C1379;unsigned char const * const volatile // -- Patched -- 
?ASN1Enc_KERB_PRINCIPAL_NAME@@YGHPAUASN1encoding_s@@KPAUKERB_PRINCIPAL_NAME@@@Z=$000C0A18;unsigned char const * const volatile // -- Patched -- 
?ASN1Enc_KERB_ENCRYPTED_CRED@@YGHPAUASN1encoding_s@@KPAUKERB_ENCRYPTED_CRED@@@Z=$000C1827;unsigned char const * const volatile // ## UNPATCHED ## - 
?ASN1Enc_KERB_ENCRYPTED_CRED_ticket_info@@YGHPAUASN1encoding_s@@KPAPAUKERB_ENCRYPTED_CRED_ticket_info_s@@@Z=$000C16CB;unsigned char const * const volatile // ## UNPATCHED ## - 
?ASN1Enc_KERB_ENCRYPTED_DATA@@YGHPAUASN1encoding_s@@KPAUKERB_ENCRYPTED_DATA@@@Z=$000C0B75;unsigned char const * const volatile // ## UNPATCHED ## - 
?ASN1Enc_KERB_ENCRYPTED_TIMESTAMP@@YGHPAUASN1encoding_s@@KPAUKERB_ENCRYPTED_TIMESTAMP@@@Z=$000C0CE9;unsigned char const * const volatile // ## UNPATCHED ## - 
?ASN1Enc_KERB_PA_PAC_REQUEST_EX@@YGHPAUASN1encoding_s@@KPAUKERB_PA_PAC_REQUEST_EX@@@Z=$000BFB3E;unsigned char const * const volatile // -- Patched -- 
?ASN1Enc_KERB_KDC_REQUEST_BODY_encryption_type@@YGHPAUASN1encoding_s@@KPAPAUKERB_KDC_REQUEST_BODY_encryption_type_s@@@Z=$000BF074;unsigned char const * const volatile // ## UNPATCHED ## - 
?ASN1Enc_KERB_KDC_REQUEST_preauth_data@@YGHPAUASN1encoding_s@@KPAPAUKERB_KDC_REQUEST_preauth_data_s@@@Z=$000C0D8E;unsigned char const * const volatile // ## UNPATCHED ## - 
?ASN1Enc_KERB_PA_PAC_REQUEST_EX_pac_sections@@YGHPAUASN1encoding_s@@KPAPAUKERB_PA_PAC_REQUEST_EX_pac_sections_s@@@Z=$000BF001;unsigned char const * const volatile // -- Patched -- 
?ASN1Enc_KERB_PRINCIPAL_NAME_name_string@@YGHPAUASN1encoding_s@@KPAPAUKERB_PRINCIPAL_NAME_name_string_s@@@Z=$000C099C;unsigned char const * const volatile // ## UNPATCHED ## - 
?ASN1Enc_PKERB_HOST_ADDRESSES@@YGHPAUASN1encoding_s@@KPAPAUPKERB_HOST_ADDRESSES_s@@@Z=$000C0A8D;unsigned char const * const volatile // ## UNPATCHED ## - 
?ASN1EncCheck@@YGHPAUASN1encoding_s@@K@Z=$000C9CD7;unsigned char const * const volatile // ## UNPATCHED ## - 
?ASN1EncSetError@@YG?AW4tagASN1error_e@@PAUASN1encoding_s@@W41@@Z=$000C987E;unsigned char const * const volatile // ## UNPATCHED ## - 
?ASN1generalizedtime2string@@YGHPADPAUtagASN1generalizedtime_t@@@Z=$000C98F7;eneralizedtime2string const * const volatile // ## UNPATCHED ## - 
?ASN1PERDecAlignment@@YGXPAUASN1decoding_s@@@Z=$000C9535;PAUASN1decoding_s [ ?? ] // ## UNPATCHED ## - 
?ASN1PERDecCheck@@YGHPAUASN1decoding_s@@K@Z=$000C9C4A;ASN1decoding_s [ ?? ] // ## UNPATCHED ## - 
?ASN1PERDecFlush@@YGHPAUASN1decoding_s@@@Z=$000C9C7D;ASN1decoding_s [ ?? ] // ## UNPATCHED ## - 
?ASN1PEREncAlignment@@YGXPAUASN1encoding_s@@@Z=$000C9549;PAUASN1encoding_s [ ?? ] // ## UNPATCHED ## - 
?ASN1PEREncFlush@@YGHPAUASN1encoding_s@@@Z=$000CA49D;ASN1encoding_s [ ?? ] // ## UNPATCHED ## - 
?ASN1string2generalizedtime@@YGHPAUtagASN1generalizedtime_t@@PAD@Z=$000C9A5B;tring2generalizedtime const * const volatile // ## UNPATCHED ## - 
?CompareUCurveMatrix@D3D@@YGXPAUNV_PATCH_CURVE_INFO@1@PAUFDMatrix@1@@Z=$0006C6A0;D3D.mpareUCurveMatrix volatile  // -- Patched -- 
?CheckLightParameters@D3D@@YGXPBU_D3DLIGHT8@@@Z=$0006BD1F;D3D.eckLightParameters volatile  // -- Patched -- 
?CompareVCurveMatrix@D3D@@YGXPAUNV_PATCH_CURVE_INFO@1@PAUFDMatrix@1@@Z=$0006FBCF;D3D.mpareVCurveMatrix volatile  // -- Patched -- 
_D3DPushBuffer_Verify@8=$00070A90;D3DPushBuffer.Verify // ## UNPATCHED ## - 
?DbgRecordPushStart@D3D@@YGXK@Z=$0006CAEE;D3D.gRecordPushStart const volatile  // -- Patched -- 
?EndFixup@D3D@@YGXH@Z=$0006CB7F;D3D.Fixup // -- Patched -- 
?PerfRecordPut@D3D@@YGXK@Z=$0006D15F;D3D.fRecordPut const volatile  // -- Patched -- 
?PushedRaw@D3D@@YGXPCK@Z=$0006E4BF;D3D.hedRaw const volatile  // -- Patched -- 
?ValidateFVF@D3D@@YGXK@Z=$00070CAE; ?? . ?? .Z.GXK const  // -- Patched -- 
_D3DPalette_Unlock@4=$00070FF0;D3DPalette.Unlock // ## UNPATCHED ## - 
?SetNext@?$TListItem@U_DMUS_IO_SEQ_ITEM@@@@QAEXPAV1@@Z=$0005A08E;unsigned char * volatile  // ## UNPATCHED ## - 
?AttachPacket@CAc97Channel@DirectSound@@QAEXKK@Z=$00087BE4;DirectSound.CAc97Channel.tachPacket // ## UNPATCHED ## - 
?AttachWmaPlayList@CSoundCue@XACT@@IAEXPAVCWmaPlayList@2@@Z=$00055A19;XACT.CSoundCue.tachWmaPlayList // ## UNPATCHED ## - 
?AttributeSort@?$GXTri3Mesh@G$00$0PPPP@@@AAEJPAI00H@Z=$0007C6D6;GXTri3Mesh<unsigned short,1,65535>.tributeSort // ## UNPATCHED ## - 
?AttributeSort@?$GXTri3Mesh@I$0A@$0?0@@AAEJPAI00H@Z=$0007BEAA;GXTri3Mesh<unsigned int,0,-1>.tributeSort // ## UNPATCHED ## - 
?BaseStart@CXnBase@@QAEXXZ=$000D29DD;CXnBase.seStart const  // ## UNPATCHED ## - 
?BaseStop@CXnBase@@QAEXXZ=$000D2A03;CXnBase.seStop const  // ## UNPATCHED ## - 
?BaseTerm@CXnBase@@QAEXXZ=$000D2A3B;CXnBase.seTerm const  // ## UNPATCHED ## - 
?BElementPresent@?$CIndexQueue@G$0PPPP@@@QAE_NG@Z=$0007A1AD;unsigned char const  // ## UNPATCHED ## - 
?BElementPresent@?$CIndexQueue@I$0?0@@QAE_NI@Z=$0007A11A;unsigned char const  // ## UNPATCHED ## - 
?BindToChannel@CMiniport@D3D@@QAEHPAUOBJECTINFO@12@@Z=$0006EB86;D3D.CMiniport.ndToChannel const  // ## UNPATCHED ## - 
?BlockOnNonSurfaceResource@D3D@@YGXPAUD3DResource@@@Z=$0006C7B0;D3D.ockOnNonSurfaceResource const  // ## UNPATCHED ## - 
?BlockOnResource@D3D@@YGXPAUD3DResource@@@Z=$0006C730;D3D.ockOnResource const  // ## UNPATCHED ## - 
?BlockOnTime@D3D@@YGXKK@Z=$0006C3F0;D3D.ockOnTime const  // ## UNPATCHED ## - 
?BuildTargetDirectory@@YGJK_KKW4XONLINEDIR_TYPE@@PAKPAD@Z=$000C4DEC;ildTargetDirectory const  // ## UNPATCHED ## - 
?BuildTargetPath@@YGJK_KKPADW4XONLINEDIR_TYPE@@PAK1@Z=$000C4F8D;ildTargetPath const  // ## UNPATCHED ## - 
?BusyLoop@D3D@@YGXXZ=$0006BED0;D3D.syLoop const  // ## UNPATCHED ## - 
?BValid@?$GXTri3Mesh@G$00$0PPPP@@@EAE_NPAV?$GXTri3Face@G@@@Z=$0007B762;GXTri3Mesh<unsigned short,1,65535>.alid const  // ## UNPATCHED ## - 
?BValidAttributeGroups@?$GXTri3Mesh@G$00$0PPPP@@@AAE_NPAV?$GXTri3Face@G@@@Z=$0007B198;GXTri3Mesh<unsigned short,1,65535>.alidAttributeGroups const  // ## UNPATCHED ## - 
?BytesToSamples@CMcpxVoiceClient@DirectSound@@IAEKK@Z=$00083281;DirectSound.CMcpxVoiceClient.tesToSamples const  // ## UNPATCHED ## - 
?CacheDelete@CXo@@IAEJPAXPAUXONLC_CONTEXT@@@Z=$000C3701;CXo.cheDelete volatile  // ## UNPATCHED ## - 
?CacheLookup@CXo@@IAEJPAXPAUXONLC_CONTEXT@@@Z=$000C36A0;CXo.cheLookup volatile  // ## UNPATCHED ## - 
?CacheTaskClose@CXo@@IAEXPAUXONLINETASK_HANDLE__@@@Z=$000C290C;CXo.cheTaskClose volatile  // ## UNPATCHED ## - 
?CalcConeAngle@CHRTFSource@DirectSound@@SGXABU_D3DVECTOR@@0PAM@Z=$000822AF;DirectSound.CHRTFSource.lcConeAngle volatile  // -- Patched -- 
?HalDmaFree@@YGXPAX@Z=$0005F9E4;lDmaFree const volatile  // -- Patched -- 
?NtClose@CXNet@@QAEJPAX@Z=$00062ABC;signed char const  // -- Patched -- 
_GetSystemTimeAsFileTime@4=$0003B33E;GetSystemTimeAsFileTime // -- Patched -- 
?CalcTilePitch@D3D@@YGKKW4_D3DFORMAT@@@Z=$0006D2A0;D3D.lcTilePitch volatile  // ## UNPATCHED ## - 
?CalculateI3dl2@CI3dl2Source@DirectSound@@QAEXM@Z=$00086401;DirectSound.CI3dl2Source.lculateI3dl2 volatile  // ## UNPATCHED ## - 
?CcwCorner@?$GXTri3Mesh@G$00$0PPPP@@@AAE?AUSFaceCorner@@AAU2@PAV?$CMeshStatus@G$00$0PPPP@@@@Z=$0007A266;GXTri3Mesh<unsigned short,1,65535>.wCorner volatile  // ## UNPATCHED ## - 
?CancelRequest@IUsbDevice@@QAEJPAT_URB@@@Z=$000E0475;IUsbDevice.ncelRequest volatile  // ## UNPATCHED ## - 
?CcwCorner@?$GXTri3Mesh@I$0A@$0?0@@AAE?AUSFaceCorner@@AAU2@PAV?$CMeshStatus@I$0A@$0?0@@@Z=$0007A21B;GXTri3Mesh<unsigned int,0,-1>.wCorner volatile  // ## UNPATCHED ## - 
?CheckReadWrite@CCacheTask@@AAEJK@Z=$000C205F;CCacheTask.eckReadWrite volatile  // ## UNPATCHED ## - 
?CheckRetrievedSectors@CCacheTask@@AAEJH@Z=$000C2B86;CCacheTask.eckRetrievedSectors volatile  // ## UNPATCHED ## - 
?CheckRetrievedSectorsIntegrity@CLocalCache@@QAEJPAUXONLC_CONTEXT@@H@Z=$000C26F3;CLocalCache.eckRetrievedSectorsIntegrity volatile  // ## UNPATCHED ## - 
?CheckRetrieveResults@CLocalCache@@QAEJPAUXONLC_CONTEXT@@@Z=$000C2599;CLocalCache.eckRetrieveResults volatile  // ## UNPATCHED ## - 
?CleanPrivateData@D3D@@YGXPAX@Z=$0006A7A0;D3D.eanPrivateData volatile  // ## UNPATCHED ## - 
?ClearAllTicketCache@CXo@@IAEXXZ=$000B58F5;CXo.earAllTicketCache volatile  // ## UNPATCHED ## - 
?CloneHelper16@?$GXTri3Mesh@G$00$0PPPP@@@AAEJPAV1@@Z=$0007E93F;GXTri3Mesh<unsigned short,1,65535>.oneHelper16 volatile  // -- Patched -- 
?ClearFriendInvite@CXo@@IAEXPAUXPRESENCE_FRIEND_LIST@@_KUXNKID@@@Z=$000B9C46;CXo.earFriendInvite volatile  // ## UNPATCHED ## - 
?ClearSentInvites@CXo@@IAEXPAUXPRESENCE_FRIEND_LIST@@@Z=$000B9CBD;CXo.earSentInvites volatile  // ## UNPATCHED ## - 
?ClearServiceTicketCache@CXo@@IAEXXZ=$000B58E2;CXo.earServiceTicketCache volatile  // ## UNPATCHED ## - 
?CloneHelper16@?$GXTri3Mesh@I$0A@$0?0@@AAEJPAV?$GXTri3Mesh@G$00$0PPPP@@@@Z=$0007EC35;GXTri3Mesh<unsigned int,0,-1>.oneHelper16 volatile  // -- Patched -- 
?CloneHelper32@?$GXTri3Mesh@G$00$0PPPP@@@AAEJPAV?$GXTri3Mesh@I$0A@$0?0@@@Z=$0007EAB8;GXTri3Mesh<unsigned short,1,65535>.oneHelper32 volatile  // -- Patched -- 
?CloneHelper32@?$GXTri3Mesh@I$0A@$0?0@@AAEJPAV1@@Z=$0007EDB1;GXTri3Mesh<unsigned int,0,-1>.oneHelper32 volatile  // ## UNPATCHED ## - 
?CloneMesh@?$GXTri3Mesh@G$00$0PPPP@@@UAGJKPBKPAUD3DDevice@@PAPAUID3DXMesh@@@Z=$00079205;GXTri3Mesh<unsigned short,1,65535>.oneMesh volatile  // ## UNPATCHED ## - 
?CloneMeshFVF@?$GXTri3Mesh@G$00$0PPPP@@@UAGJKKPAUD3DDevice@@PAPAUID3DXMesh@@@Z=$0007E7C8;GXTri3Mesh<unsigned short,1,65535>.oneMeshFVF volatile  // -- Patched -- 
?CloneMeshFVF@?$GXTri3Mesh@I$0A@$0?0@@UAGJKKPAUD3DDevice@@PAPAUID3DXMesh@@@Z=$0007F592;GXTri3Mesh<unsigned int,0,-1>.oneMeshFVF volatile  // ## UNPATCHED ## - 
?CloneVertexBuffer@?$GXTri3Mesh@G$00$0PPPP@@@AAEJKPAUD3DVertexBuffer@@@Z=$0007EF20;GXTri3Mesh<unsigned short,1,65535>.oneVertexBuffer volatile  // ## UNPATCHED ## - 
?CloseDefaultEndpoint@IUsbDevice@@AAEJPAT_URB@@@Z=$000E0687;IUsbDevice.oseDefaultEndpoint volatile  // ## UNPATCHED ## - 
?CloseCombinedTicketCache@CXo@@IAEXXZ=$000B33A2;CXo.oseCombinedTicketCache volatile  // -- Patched -- 
?closesocket@CXnSock@@QAEHI@Z=$000CD9E2;CXnSock.osesocket // -- Patched -- 
?CloseServiceTicketCache@CXo@@IAEXXZ=$000B33DF;CXo.oseServiceTicketCache volatile  // -- Patched -- 
?ClwFaceCorner@?$GXTri3Mesh@G$00$0PPPP@@@AAE?AUSFaceCorner@@AAU2@@Z=$0007A1FB;GXTri3Mesh<unsigned short,1,65535>.wFaceCorner volatile  // ## UNPATCHED ## - 
?CmpFunc@@YAHPBX0@Z=$000790CF;pFunc volatile  // ## UNPATCHED ## - 
?CoalesceRuns@CMcpxBufferSgeHeap@DirectSound@@IAEPAUSGEHEAPRUNMARKER@@PAU3@0@Z=$00086762;DirectSound.CMcpxBufferSgeHeap.alesceRuns volatile  // ## UNPATCHED ## - 
?CoalesceRuns@CMcpxSlopMemoryHeap@DirectSound@@IAEPAUSLOPRUNMARKER@@PAU3@0@Z=$000869F2;DirectSound.CMcpxSlopMemoryHeap.alesceRuns volatile  // ## UNPATCHED ## - 
?CodecReady@CAc97Device@DirectSound@@IAEHXZ=$000879B7;DirectSound.CAc97Device.decReady volatile  // ## UNPATCHED ## - 
?CollectAttributeIds@?$GXTri3Mesh@G$00$0PPPP@@@AAEJPAPAKPAK@Z=$00079F21;GXTri3Mesh<unsigned short,1,65535>.llectAttributeIds volatile  // ## UNPATCHED ## - 
?CollectAttributeIds@?$GXTri3Mesh@I$0A@$0?0@@AAEJPAPAKPAK@Z=$00079BA7;GXTri3Mesh<unsigned int,0,-1>.llectAttributeIds volatile  // -- Patched -- 
?CollectValidUser@CXo@@IAEXPAU_XC_ONLINE_USER_ACCOUNT_STRUCT@@PAEKPAU_FILETIME@@PAUXONLINEP_USER@@PAK@Z=$000B26CB;CXo.llectValidUser volatile  // -- Patched -- 
?Discontinuity@CDirectSoundStream@DirectSound@@UAGJXZ=$000810E8;DirectSound.CDirectSoundStream.scontinuity const volatile  // -- Patched -- 
?Flush@CDirectSoundStream@DirectSound@@UAGJXZ=$00081135;DirectSound.CDirectSoundStream.sh // -- Patched -- 
?Pause@CDirectSoundStream@DirectSound@@QAGJK@Z=$00081248;DirectSound.CDirectSoundStream.se const volatile  // -- Patched -- 
?GetCurrentPosition@CDirectSoundBuffer@DirectSound@@QAGJPAK0@Z=$00080DCA;DirectSound.CDirectSoundBuffer.tCurrentPosition volatile  // -- Patched -- 
?GetStatus@CDirectSoundBuffer@DirectSound@@QAGJPAK@Z=$00080D79;DirectSound.CDirectSoundBuffer.tStatus volatile  // -- Patched -- 
?GetStatus@CDirectSoundStream@DirectSound@@UAGJPAK@Z=$00081180;DirectSound.CDirectSoundStream.tStatus volatile  // ## UNPATCHED ## - 
?Play@CDirectSoundBuffer@DirectSound@@QAGJKKK@Z=$00080CD9;DirectSound.CDirectSoundBuffer.y const volatile  // -- Patched -- 
?Release@CDirectSoundBuffer@DirectSound@@UAGKXZ=$00080C8F; ?? .AGKXZ const  // -- Patched -- 
?Release@CDirectSoundStream@DirectSound@@UAGKXZ=$00081033; ?? .AGKXZ const  // -- Patched -- 
?SetCurrentPosition@CDirectSoundBuffer@DirectSound@@QAGJK@Z=$00080EF5;unsigned short * volatile  // -- Patched -- 
?SetMixBinHeadroom@CDirectSound@DirectSound@@QAGJKK@Z=$0008098E;unsigned short * volatile  // -- Patched -- 
?SetMixBins@CDirectSoundBuffer@DirectSound@@QAGJPBU_DSMIXBINS@@@Z=$00081333;unsigned short * volatile  // -- Patched -- 
?SetPitch@CDirectSoundBuffer@DirectSound@@QAGJJ@Z=$00081799;unsigned short * volatile  // ## UNPATCHED ## - 
?SetVolume@CDirectSoundBuffer@DirectSound@@QAGJJ@Z=$00081381;unsigned short * volatile  // -- Patched -- 
?Stop@CDirectSoundBuffer@DirectSound@@QAGJXZ=$00080D2A;unsigned short * volatile  // -- Patched -- 
?CommonSetControl0@D3D@@YIPCKPAVCDevice@1@PCK@Z=$000664D0;D3D.mmonSetControl0 volatile  // -- Patched -- 
?CommonSetTextureBumpEnv@D3D@@YIPCKPAVCDevice@1@PCK@Z=$00066290;D3D.mmonSetTextureBumpEnv volatile  // ## UNPATCHED ## - 
?CommonSetPassthroughProgram@D3D@@YIXPAVCDevice@1@@Z=$0006A550;D3D.mmonSetPassthroughProgram volatile  // ## UNPATCHED ## - 
?CommonSetViewport@D3D@@YIPCKPAVCDevice@1@PCK@Z=$000662E0;D3D.mmonSetViewport volatile  // ## UNPATCHED ## - 
?Compact@?$GXTri3Mesh@I$0A@$0?0@@AAEJPAI00@Z=$00079618;GXTri3Mesh<unsigned int,0,-1>.mpact volatile  // ## UNPATCHED ## - 
?Compact@?$GXTri3Mesh@G$00$0PPPP@@@AAEJPAI00@Z=$00079736;GXTri3Mesh<unsigned short,1,65535>.mpact volatile  // ## UNPATCHED ## - 
?XOnlineContentSetSecurityKey@CXo@@QAEJPBE@Z=$000B9CE9;unsigned char * const volatile  // -- Patched -- 
?CompareIndexData@CLocalCache@@AAEHPAE0@Z=$000C2823;CLocalCache.mpareIndexData volatile  // -- Patched -- 
?CompletePacket@CMcpxStream@DirectSound@@IAEXPAUMCPX_PACKET_CONTEXT@@K@Z=$000836AD;DirectSound.CMcpxStream.mpletePacket volatile  // ## UNPATCHED ## - 
?Complete@CPacketQueue@@QAEXPAVCXnBase@@@Z=$000D28E1;CPacketQueue.mplete volatile  // ## UNPATCHED ## - 
?CompleteRecentLogonTimeCacheOpenTask@CXo@@IAEXXZ=$000B2407;CXo.mpleteRecentLogonTimeCacheOpenTask volatile  // -- Patched -- 
?ComputeCacheOffsets@CLocalCache@@AAEXXZ=$000C23A9;CLocalCache.mputeCacheOffsets volatile  // ## UNPATCHED ## - 
?ComputeSectorsCount@CLocalCache@@AAEKK@Z=$000C2393;CLocalCache.mputeSectorsCount volatile  // ## UNPATCHED ## - 
?ConfigureUPnPNatBuildAddPortRequest@CXo@@IAEXPAUXONLINETASK_CONFIGURE_UPNP_NAT@@G@Z=$000C8786;CXo.nfigureUPnPNatBuildAddPortRequest volatile  // ## UNPATCHED ## - 
?ConfigureUPnPNatGetResults@CXo@@IAEJPAUXONLINETASK_HANDLE__@@PAG@Z=$000C8006;CXo.nfigureUPnPNatGetResults volatile  // ## UNPATCHED ## - 
?ConfigureUPnPNatSendDiscoveryRequest@CXo@@IAEJPAUXONLINETASK_CONFIGURE_UPNP_NAT@@@Z=$000C84D1;CXo.nfigureUPnPNatSendDiscoveryRequest volatile  // ## UNPATCHED ## - 
?ConfigureUPnPNatVerifyAddPortResponse@CXo@@IAEJPAUXONLINETASK_CONFIGURE_UPNP_NAT@@K@Z=$000C8D94;CXo.nfigureUPnPNatVerifyAddPortResponse volatile  // ## UNPATCHED ## - 
?ConfigureUPnPNatVerifyDiscoveryReply@CXo@@IAEJPAUXONLINETASK_CONFIGURE_UPNP_NAT@@@Z=$000C85D1;CXo.nfigureUPnPNatVerifyDiscoveryReply volatile  // ## UNPATCHED ## - 
?ConfigureUPnPNatVerifyGetDescriptionResponse@CXo@@IAEJPAUXONLINETASK_CONFIGURE_UPNP_NAT@@@Z=$000C8C80;CXo.nfigureUPnPNatVerifyGetDescriptionResponse volatile  // ## UNPATCHED ## - 
?connect@CXnSock@@QAEHIPBUsockaddr@@H@Z=$000CCBC1;CXnSock.nnect // -- Patched -- 
?ConvertAdjacencyToPointReps@?$GXTri3Mesh@G$00$0PPPP@@@UAGJPBKPAK@Z=$0007D905;GXTri3Mesh<unsigned short,1,65535>.nvertAdjacencyToPointReps volatile  // ## UNPATCHED ## - 
?ConvertAdjacencyToPointReps@?$GXTri3Mesh@I$0A@$0?0@@UAGJPBKPAK@Z=$0007D488;GXTri3Mesh<unsigned int,0,-1>.nvertAdjacencyToPointReps volatile  // ## UNPATCHED ## - 
?ConvertPointRepsToAdjacency@?$GXTri3Mesh@G$00$0PPPP@@@UAGJPBKPAK@Z=$0007B2DB;GXTri3Mesh<unsigned short,1,65535>.nvertPointRepsToAdjacency volatile  // ## UNPATCHED ## - 
?ConvertPointRepsToAdjacency@?$GXTri3Mesh@I$0A@$0?0@@UAGJPBKPAK@Z=$0007AC38;GXTri3Mesh<unsigned int,0,-1>.nvertPointRepsToAdjacency volatile  // ## UNPATCHED ## - 
?Copy@CMcpxDspScratchDma@DirectSound@@QAEXKPAXK@Z=$00086D75;DirectSound.CMcpxDspScratchDma.py volatile  // ## UNPATCHED ## - 
?CopyAndAdjustUser@CXo@@IAEXPAU_XC_ONLINE_USER_ACCOUNT_STRUCT@@KPAUXONLINEP_USER@@@Z=$000B243A;CXo.pyAndAdjustUser volatile  // ## UNPATCHED ## - 
?CopyBufferToSectors@CLocalCache@@AAEPAEPAEPBVCAddress@@PAVCSector@@@Z=$000C24E1;CLocalCache.pyBufferToSectors volatile  // ## UNPATCHED ## - 
?CopyDataToSectors@CLocalCache@@AAEPAEPAEPAVCAddress@@KHPAVCSector@@@Z=$000C328F;CLocalCache.pyDataToSectors volatile  // ## UNPATCHED ## - 
?CopyMesh@?$GXTri3Mesh@G$00$0PPPP@@@AAEJPAV1@@Z=$0007BB84;GXTri3Mesh<unsigned short,1,65535>.pyMesh volatile  // ## UNPATCHED ## - 
?CopyMesh@?$GXTri3Mesh@I$0A@$0?0@@AAEJPAV1@@Z=$0007BA0E;GXTri3Mesh<unsigned int,0,-1>.pyMesh volatile  // ## UNPATCHED ## - 
?CopyVertex@SVertexCopyContext@@QAEXPAE0@Z=$0007A570;SVertexCopyContext.pyVertex volatile  // ## UNPATCHED ## - 
?Cos@D3D@@YGMM@Z=$0006D100;D3D.s volatile  // ## UNPATCHED ## - 
?CreateChannel@CAc97Device@DirectSound@@QAEJW4AC97CHANNELTYPE@@PAPAVCAc97Channel@2@@Z=$00087B7C;DirectSound.CAc97Device.eateChannel volatile  // ## UNPATCHED ## - 
?CreateCtxDmaObject@CMiniport@D3D@@QAEHKKPAXKPAUOBJECTINFO@12@@Z=$0006ED9B;D3D.CMiniport.eateCtxDmaObject volatile  // ## UNPATCHED ## - 
?CreateInternalFormat@WaveFormat@DirectSound@@YGKPAUDSWAVEFORMAT@@PBUtWAVEFORMATEX@@@Z=$000823EA;DirectSound.WaveFormat.eateInternalFormat volatile  // ## UNPATCHED ## - 
?CreateGrObject@CMiniport@D3D@@QAEHKKPAUOBJECTINFO@12@@Z=$0006EE6A;D3D.CMiniport.eateGrObject volatile  // ## UNPATCHED ## - 
?CreateMarker@CMcpxBufferSgeHeap@DirectSound@@IAEPAUSGEHEAPRUNMARKER@@PAU3@GGPAU_LIST_ENTRY@@@Z=$00086567;DirectSound.CMcpxBufferSgeHeap.eateMarker volatile  // ## UNPATCHED ## - 
?CreateMarker@CMcpxSlopMemoryHeap@DirectSound@@IAEPAUSLOPRUNMARKER@@PAXKPAU_LIST_ENTRY@@@Z=$0008659D;DirectSound.CMcpxSlopMemoryHeap.eateMarker volatile  // ## UNPATCHED ## - 
?CreateSoundBuffer@CDirectSound@DirectSound@@QAGJPBU_DSBUFFERDESC@@PAPAUIDirectSoundBuffer@@PAUIUnknown@@@Z=$00081ED0;DirectSound.CDirectSound.eateSoundBuffer volatile  // ## UNPATCHED ## - 
?CreateSurfaceWithContiguousHeader@D3D@@YGPAUD3DSurface@@KKW4_D3DFORMAT@@@Z=$0006ABB0;D3D.eateSurfaceWithContiguousHeader volatile  // ## UNPATCHED ## - 
?CreateSoundStream@CDirectSound@DirectSound@@QAGJPBU_DSSTREAMDESC@@PAPAUIDirectSoundStream@@PAUIUnknown@@@Z=$00081C91;DirectSound.CDirectSound.eateSoundStream volatile  // -- Patched -- 
?CreateTile@CMiniport@D3D@@QAEHKKKKKKK@Z=$0006F20F;D3D.CMiniport.eateTile volatile  // ## UNPATCHED ## - 
?CryptDes@CXnIp@@AAEXKPAEI00I@Z=$000CDD2B;CXnIp.yptDes volatile  // ## UNPATCHED ## - 
?CutFirstSectors@CAddress@@QAEXK@Z=$000C1FD6;CAddress.tFirstSectors volatile  // ## UNPATCHED ## - 
?CutLastSectors@CAddress@@QAEXK@Z=$000C2001;CAddress.tLastSectors volatile  // ## UNPATCHED ## - 
?GetExtension@IUsbDevice@@QBEPAXXZ=$000E0488;IUsbDevice.tExtension volatile  // ## UNPATCHED ## - 
?D3DInternals@D3D@@YAJKPAX@Z=$00068240;D3D.DInternals const volatile  // ## UNPATCHED ## - 
?XGMatrixIdentity@@YGPAUXGMATRIX@@PAU1@@Z=$00020AB1;GPAUXGMATRIX const volatile  // -- Patched -- 
?D3DXMatrixIdentity@@YAPAUD3DXMATRIX@@PAU1@@Z=$0007880B;DXMatrixIdentity const volatile  // ## UNPATCHED ## - 
?D3DXQuaternionDot@@YAMPBUD3DXQUATERNION@@0@Z=$0007888D;DXQuaternionDot const volatile  // ## UNPATCHED ## - 
?D3DXQuaternionConjugate@@YAPAUD3DXQUATERNION@@PAU1@PBU1@@Z=$000788B2;DXQuaternionConjugate const volatile  // ## UNPATCHED ## - 
?D3DXQuaternionLengthSq@@YAMPBUD3DXQUATERNION@@@Z=$0007885F;DXQuaternionLengthSq const volatile  // ## UNPATCHED ## - 
?D3DXVec3Cross@@YAPAUD3DXVECTOR3@@PAU1@PBU1@1@Z=$0007879A;DXVec3Cross const volatile  // ## UNPATCHED ## - 
?XGVec3Cross@@YGPAUXGVECTOR3@@PAU1@PBU1@1@Z=$00051A8B;GPAUXGVECTOR3 const volatile  // -- Patched -- 
?MagnitudeVector3@Math@DirectSound@@YGMPBU_D3DVECTOR@@@Z=$00051A64;DirectSound.Math.nitudeVector3 // ## UNPATCHED ## - 
?D3DXVec3LengthSq@@YAMPBUD3DXVECTOR3@@@Z=$00078777;DXVec3LengthSq const volatile  // ## UNPATCHED ## - 
?D3DXVec3Subtract@@YAPAUD3DXVECTOR3@@PAU1@PBU1@1@Z=$000787E6;DXVec3Subtract const volatile  // ## UNPATCHED ## - 
?DacProgramGammaRamp@CMiniport@D3D@@QAEXPAU_D3DGAMMARAMP@@@Z=$0006DBE2;D3D.CMiniport.cProgramGammaRamp const volatile  // ## UNPATCHED ## - 
?DacProgramVideoStart@CMiniport@D3D@@QAEXK@Z=$0006DB60;D3D.CMiniport.cProgramVideoStart const volatile  // ## UNPATCHED ## - 
?DBGPRINT@D3D@@YAXPADZZ=$000719F0; ?? .PADZZ [ ?? ] // ## UNPATCHED ## - 
?DeactivateVoice@CMcpxVoiceClient@DirectSound@@IAEXH@Z=$00085108;DirectSound.CMcpxVoiceClient.activateVoice const volatile  // -- Patched -- 
?DecimalStringToUINT@@YGIPBDK@Z=$000C98D0;cimalStringToUINT const volatile  // ## UNPATCHED ## - 
?DecMemAlloc@@YGPAXPAUASN1decoding_s@@K@Z=$000CA3A9;cMemAlloc const volatile  // ## UNPATCHED ## - 
?DecMemReAlloc@@YGPAXPAUASN1decoding_s@@PAXK@Z=$000CA40A;cMemReAlloc const volatile  // ## UNPATCHED ## - 
?DecrementAddress@CAddress@@QAEXK@Z=$000C1FB7;CAddress.crementAddress const volatile  // ## UNPATCHED ## - 
?DecrementBusyHubCount@IUsbDevice@@SGXXZ=$000DF8DA;IUsbDevice.crementBusyHubCount const volatile  // ## UNPATCHED ## - 
?DecrementCount@?$CMeshStatus@G$00$0PPPP@@@AAEXG@Z=$0007A459;CMeshStatus<unsigned short,1,65535>.crementCount const volatile  // ## UNPATCHED ## - 
?DecrementCount@?$CMeshStatus@I$0A@$0?0@@AAEXI@Z=$0007A35F;CMeshStatus<unsigned int,0,-1>.crementCount const volatile  // ## UNPATCHED ## - 
?DecryptSessionKey@CXo@@IAEHPAE0@Z=$000B356B;CXo.cryptSessionKey const volatile  // ## UNPATCHED ## - 
?DefaultMask@CIpAddr@@QBE?AU1@XZ=$000D291D;CIpAddr.faultMask const volatile  // ## UNPATCHED ## - 
?DeleteCurrentIndexEntry@CLocalCache@@QAEXXZ=$000C35FD;CLocalCache.leteCurrentIndexEntry const volatile  // ## UNPATCHED ## - 
?Dequeue@CPacketQueue@@QAEXPAVCPacket@@@Z=$000D2232;CPacketQueue.queue const volatile  // ## UNPATCHED ## - 
?DequeueChild@CTcpSocket@@QAEXPAV1@@Z=$000D93E6;CTcpSocket.queueChild const volatile  // ## UNPATCHED ## - 
?DestroyResource@D3D@@YGXPAUD3DResource@@@Z=$0006A7F0;D3D.stroyResource const volatile  // ## UNPATCHED ## - 
?DestroyTile@CMiniport@D3D@@QAEHKK@Z=$0006F3FD;D3D.CMiniport.stroyTile const volatile  // ## UNPATCHED ## - 
?DeviceDisconnected@IUsbDevice@@QAEXE@Z=$000DFAD4;IUsbDevice.viceDisconnected const volatile  // ## UNPATCHED ## - 
?DeviceConnected@IUsbDevice@@QAEXEE@Z=$000DF70C;IUsbDevice.viceConnected const volatile  // ## UNPATCHED ## - 
?DeviceNotResponding@IUsbDevice@@QAEXXZ=$000DFB4B;IUsbDevice.viceNotResponding const volatile  // ## UNPATCHED ## - 
?DirectSoundCreateInternal@@YGJPAPAVCDirectSound@DirectSound@@@Z=$000820E4;rectSoundCreateInternal const volatile  // ## UNPATCHED ## - 
?DirectSoundEnterCriticalSection@@YGHXZ=$00080811;rectSoundEnterCriticalSection const volatile  // ## UNPATCHED ## - 
?DisableComplete@IUsbDevice@@QAEXJPAX@Z=$000DFC24;IUsbDevice.sableComplete const volatile  // ## UNPATCHED ## - 
_WSAGetLastError@0=$000CBE56;WSAGetLastError // ## UNPATCHED ## - 
_XShaHmacUpdate@12=$0005FCA8;XShaHmacUpdate // ## UNPATCHED ## - 
?XFree@@YAXPAX@Z=$0005B021; ?? . ?? .Z.AXPAX const volatile  // ## UNPATCHED ## - 
?_BERDecBitString@@YGHPAUASN1decoding_s@@KPAUtagASN1bitstring_t@@K@Z=$000CA70E;unsigned short volatile  // ## UNPATCHED ## - 
?_BERDecConstructed@@YGHPAUASN1decoding_s@@KKPAPAU1@PAPAE@Z=$000C9F1A;unsigned short volatile  // ## UNPATCHED ## - 
?_BERDecOctetString@@YGHPAUASN1decoding_s@@KPAUtagASN1octetstring_t@@K@Z=$000CAE00;unsigned short volatile  // ## UNPATCHED ## - 
?_BERGetLength@@YGKKQBKK@Z=$000C960E;unsigned short volatile  // ## UNPATCHED ## - 
?_BERPutLength@@YGXPAUASN1encoding_s@@KK@Z=$000C9632;unsigned short volatile  // ## UNPATCHED ## - 
?_XOnlineChangeGamerTagResults@CXo@@QAEJPAUXONLINETASK_HANDLE__@@PAU_XONLINE_USER@@@Z=$000BDFB7;XONLINETASK_HANDLE__ * const & volatile  // ## UNPATCHED ## - 
?_XOnlineRestoreAccountResults@CXo@@QAEJPAUXONLINETASK_HANDLE__@@PAU_XONLINE_USER@@@Z=$000BDF7B;XONLINETASK_HANDLE__ * const & volatile  // -- Patched -- 
?_XOnlineSetUserPINResults@CXo@@QAEJPAUXONLINETASK_HANDLE__@@PAU_XONLINE_USER@@@Z=$000BDDA9;XONLINETASK_HANDLE__ * const & volatile  // -- Patched -- 
?_XOnlineGetCreateOwnerAccountResults@CXo@@QAEJPAUXONLINETASK_HANDLE__@@PAU_XONLINE_USER@@@Z=$000BD512;XONLINETASK_HANDLE__ * const & volatile  // -- Patched -- 
?_XOnlineGetMachineID@CXo@@QAEJPA_K@Z=$000B155B;unsigned __int64 * const & volatile  // ## UNPATCHED ## - 
?_XOnlineGetPaymentInfoResults@CXo@@QAEJPAUXONLINETASK_HANDLE__@@PAU_USER_PAYMENT_INFO@@@Z=$000BD624;XONLINETASK_HANDLE__ * const & volatile  // -- Patched -- 
?_XOnlineGetSerialNumber@CXo@@QAEJQAD@Z=$000B1808;char * const & volatile  // ## UNPATCHED ## - 
?_XOnlineGetUserFromMU@CXo@@QAEJKKPAU_XONLINE_USER@@@Z=$000B2A45;unsigned long const & volatile  // -- Patched -- 
?_XOnlineGetUsersFromHD@CXo@@QAEJPAU_XONLINE_USER@@PAK@Z=$000B2954;_XONLINE_USER * const & volatile  // -- Patched -- 
?_XOnlineIsUserCredentialPresent@CXo@@QAEHPAU_XONLINE_USER@@@Z=$000B2ABB;_XONLINE_USER * const volatile & volatile  // -- Patched -- 
?_XOnlineLogonTaskGetStatus@CXo@@QAEKPAUXONLINETASK_HANDLE__@@PAK@Z=$000B31D2;XONLINETASK_HANDLE__ * volatile & volatile  // -- Patched -- 
?_XOnlinePostalCodeLookupGetResults@CXo@@QAEJPAUXONLINETASK_HANDLE__@@PAKPAPAUXONLINE_POSTAL_LOOKUP_RESULT@@@Z=$000BEE23;XONLINETASK_HANDLE__ * const & volatile  // -- Patched -- 
?_XOnlineRemoveUserFromHD@CXo@@QAEJPAU_XONLINE_USER@@@Z=$000B2F58;_XONLINE_USER * const & volatile  // -- Patched -- 
?_XOnlineReserveName@CXo@@QAEJPBGGEPAXPAPAUXONLINETASK_HANDLE__@@@Z=$000B6BF7;unsigned short const * const & volatile  // -- Patched -- 
?_XOnlineSetPaymentInfo@CXo@@QAEJKPBEPBU_USER_PAYMENT_INFO@@PAXPAPAUXONLINETASK_HANDLE__@@@Z=$000BE1F9;unsigned long const & volatile  // -- Patched -- 
?_XOnlineTroubleshootAccountResults@CXo@@QAEJPAUXONLINETASK_HANDLE__@@PAU_USER_ACCOUNT_STATUS_INFO@@@Z=$000BE1C1;XONLINETASK_HANDLE__ * const & volatile  // -- Patched -- 
?_XOnlineVerifyVoucher@CXo@@QAEJPBGEPAXPAPAUXONLINETASK_HANDLE__@@@Z=$000B5A90;unsigned short const * const & volatile  // -- Patched -- 
?GetModuleLockCounter@@YGPAJXZ=$0002006E;tModuleLockCounter volatile  // -- Patched -- 
_XGraphicsBuildVersion@0=$00061BC3;XGraphicsBuildVersion // -- Patched -- 
_get_crc_table=$00040A63;get.crc.table // -- Patched -- 
_png_get_copyright=$00061BCF;png.get.copyright // -- Patched -- 
_png_get_header_version=$00062249;png.get.header.version // -- Patched -- 
_zlibVersion=$0008DEB8;zlibVersion // -- Patched -- 
?AC3GetProgram@CMcpxEPDspManager@DirectSound@@SGXKPAPAXPAK@Z=$000881CF;signed char // ## UNPATCHED ## - 
?AC3GetTotalScratchSize@CMcpxEPDspManager@DirectSound@@SGKXZ=$000881C9;signed char // ## UNPATCHED ## - 
?AC3SetAnalogOutput@CMcpxEPDspManager@DirectSound@@QAEXKK@Z=$000882F5;signed char // ## UNPATCHED ## - 
?AC3SetDigitalOutput@CMcpxEPDspManager@DirectSound@@QAEXKK@Z=$0008831D;signed char // ## UNPATCHED ## - 
?AC3SetOutputBuffer@CMcpxGPDspManager@DirectSound@@QAEXPAUMCPX_ALLOC_CONTEXT@@K@Z=$0008253B;signed char // ## UNPATCHED ## - 
?AC3StartGpInput@CMcpxEPDspManager@DirectSound@@AAEXK@Z=$0008827E;signed char // ## UNPATCHED ## - 
?AccessVertex@?$CSimVertexCache@G$0PPPP@@@QAEXGAA_N@Z=$0007CF93;CSimVertexCache<unsigned short,65535>.cessVertex // ## UNPATCHED ## - 
?AciInterruptDpcHandler@CAc97Device@DirectSound@@CGXPAU_KDPC@@PAX11@Z=$00088014;DirectSound.CAc97Device.iInterruptDpcHandler // -- Patched -- 
?AccessVertex@?$CSimVertexCache@I$0?0@@QAEXIAA_N@Z=$0007CF6E;CSimVertexCache<unsigned int,-1>.cessVertex // -- Patched -- 
?ApuInterruptDpcRoutine@CMcpxAPU@DirectSound@@CGXPAU_KDPC@@PAX11@Z=$00082ED4;DirectSound.CMcpxAPU.uInterruptDpcRoutine // -- Patched -- 
?DeferredCommandDpcRoutine@CMcpxAPU@DirectSound@@CGXPAU_KDPC@@PAX11@Z=$00082D54;DirectSound.CMcpxAPU.ferredCommandDpcRoutine const volatile  // ## UNPATCHED ## - 
?EnetDpc@CXnEnet@@CGXPAU_KDPC@@PAX11@Z=$000DC3A8;CXnEnet.tDpc // ## UNPATCHED ## - 
?NicDpc@CXnNic@@CGXPAU_KDPC@@PAX11@Z=$000D362C;CXnNic.Dpc const  // ## UNPATCHED ## - 
?TimerDpc@CXnBase@@CGXPAU_KDPC@@PAX11@Z=$000D2BA9;signed char const volatile  // ## UNPATCHED ## - 
?AciInterruptServiceRoutine@CAc97Device@DirectSound@@CGEPAU_KINTERRUPT@@PAX@Z=$00088003;DirectSound.CAc97Device.iInterruptServiceRoutine // ## UNPATCHED ## - 
?AciSynchronizationRoutine@CAc97Device@DirectSound@@CGEPAX@Z=$00087B6E;DirectSound.CAc97Device.iSynchronizationRoutine // ## UNPATCHED ## - 
?AciShutdownNotifier@CAc97Device@DirectSound@@CGXPAU_HAL_SHUTDOWN_REGISTRATION@@@Z=$000880CE;DirectSound.CAc97Device.iShutdownNotifier // ## UNPATCHED ## - 
?AcquireCodecSemaphore@CAc97Device@DirectSound@@KGHXZ=$0008798A;DirectSound.CAc97Device.quireCodecSemaphore // ## UNPATCHED ## - 
?ActivateVoice@CMcpxVoiceClient@DirectSound@@IAEXXZ=$0008546D;DirectSound.CMcpxVoiceClient.tivateVoice // ## UNPATCHED ## - 
?Add@CRandBytes@@QAEXPAXI@Z=$000D9172;CRandBytes.d // ## UNPATCHED ## - 
?AddBlankTitle@CTitleCache@@IAEJKG@Z=$000B732A;CTitleCache.dBlankTitle // ## UNPATCHED ## - 
?AddComplete@IUsbDevice@@QAEXJ@Z=$000DFD29;IUsbDevice.dComplete // ## UNPATCHED ## - 
?AddFriend@CXo@@IAEJPAUXPRESENCE_FRIEND_LIST@@_KPAEKKK@Z=$000B9978;CXo.dFriend // ## UNPATCHED ## - 
?AddMutedUser@CXo@@IAEJPAUXPRESENCE_MUTE_LIST@@_K@Z=$000B87D3;CXo.dMutedUser // ## UNPATCHED ## - 
?AddPages@CMcpxDspScratchDma@DirectSound@@QAEXPAUMCPX_ALLOC_CONTEXT@@KPAK@Z=$00086D23;DirectSound.CMcpxDspScratchDma.dPages // ## UNPATCHED ## - 
?AddRef@CD3DXSprite@@UAGKXZ=$0008056E;CD3DXSprite.dRef // -- Patched -- 
?AddRef@CRefCount@DirectSound@@UAGKXZ=$000807DD;DirectSound.CRefCount.dRef // ## UNPATCHED ## - 
?AddRef@?$GXTri3Mesh@I$0A@$0?0@@UAGKXZ=$0007914B;GXTri3Mesh<unsigned int,0,-1>.dRef // ## UNPATCHED ## - 
_crc_table=$000181DC;crc.table // ## UNPATCHED ## - 
?dummyLock@?1??GetModuleLockCounter@@YGPAJXZ@4JA=$00020074;`GetModuleLockCounter'.`2'.mmyLock // ## UNPATCHED ## - 
_flagEof=$001181A8;flagEof // ## UNPATCHED ## - 
?ConvertPitchValue@CMcpxVoiceClient@DirectSound@@IAEXPAK@Z=$00084574;DirectSound.CMcpxVoiceClient.nvertPitchValue volatile  // -- Patched -- 
?m_pfnGetFilterPair@CHrtfSource@DirectSound@@0P6GXPAV12@@ZA=$00088C94;UNKNOWN // ## UNPATCHED ## - 
_XDEVICE_TYPE_MEMORY_UNIT_TABLE=$000DCF00;XDEVICE.TYPE.MEMORY.UNIT.TABLE // ## UNPATCHED ## - 
?MU_DriverObject@@3U_DRIVER_OBJECT@@A=$000DCF38;__int8 // ## UNPATCHED ## - 
__imp__IoCreateDevice@24=$000120D0;.imp..IoCreateDevice // ## UNPATCHED ## - 
?MU_gResourceRequirements@@3U_USB_RESOURCE_REQUIREMENTS@@A=$000DCF28;UNKNOWN // ## UNPATCHED ## - 
$T30384=$0001F2E8;$T30384 // ## UNPATCHED ## - 
__imp__IoSynchronousDeviceIoControlRequest@32=$000120FC;.imp..IoSynchronousDeviceIoControlRequest // ## UNPATCHED ## - 
__imp__IoSynchronousFsdRequest@20=$000120F8;.imp..IoSynchronousFsdRequest // ## UNPATCHED ## - 
$T31065=$00017F40;$T31065 // ## UNPATCHED ## - 
?Commit3dSettings@CMcpxVoiceClient@DirectSound@@QAEXXZ=$00085245;DirectSound.CMcpxVoiceClient.mmit3dSettings volatile  // -- Patched -- 
?$S1@?1??ResetGlobalCounters@CMcpxCore@DirectSound@@IAEXXZ@4IA=$000894A8;?$S1 // ## UNPATCHED ## - 
?dwDelta@?1??ResetGlobalCounters@CMcpxCore@DirectSound@@IAEXXZ@4KB=$00088BFC;`DirectSound.CMcpxCore.ResetGlobalCounters'.`2'.Delta // ## UNPATCHED ## - 
?Play@CMcpxBuffer@DirectSound@@QAEJK@Z=$00085EE2;DirectSound.CMcpxBuffer.y const volatile  // -- Patched -- 
?GetAntecedentVoice@CMcpxVoiceClient@DirectSound@@AAEXPAEPAPAV12@@Z=$000845F6;DirectSound.CMcpxVoiceClient.tAntecedentVoice volatile  // -- Patched -- 
?AllocateBufferResources@CMcpxBuffer@DirectSound@@IAEJXZ=$00085E94;DirectSound.CMcpxBuffer.locateBufferResources // ## UNPATCHED ## - 
?CheckStuckVoice@CMcpxVoiceClient@DirectSound@@IAEXXZ=$00084937;DirectSound.CMcpxVoiceClient.eckStuckVoice volatile  // -- Patched -- 
$T30367=$0001F2D8;$T30367 // ## UNPATCHED ## - 
?MapInputBuffer@CMcpxBuffer@DirectSound@@IAEJXZ=$00085D3B;DirectSound.CMcpxBuffer.InputBuffer // -- Patched -- 
?c_szElementStack_AddPortMappingResponse@@3PAPBDA=$00116DF0;UNKNOWN // ## UNPATCHED ## - 
?g_PresenceURLs@@3PAPBDA=$00116D5C;UNKNOWN // ## UNPATCHED ## - 
?c_szElementStack_ControlResponseFailure@@3PAPBDA=$00116DFC;UNKNOWN // ## UNPATCHED ## - 
_DirectSoundRequiredMixBins_3D=$000885FC;DirectSoundRequiredMixBins.3D // ## UNPATCHED ## - 
_KSDATAFORMAT_SUBTYPE_PCM=$00088500;KSDATAFORMAT.SUBTYPE.PCM // ## UNPATCHED ## - 
_KSDATAFORMAT_SUBTYPE_XBOX_ADPCM=$000884F0;KSDATAFORMAT.SUBTYPE.XBOX.ADPCM // ## UNPATCHED ## - 
_DirectSoundDefaultMixBins_3D=$000885F4;DirectSoundDefaultMixBins.3D // ## UNPATCHED ## - 
?apDefaultMixBins@?1??SetMixBins@CDirectSoundVoiceSettings@DirectSound@@QAEXPBU_DSMIXBINS@@@Z@4QBQBU4@B=$000884CC;`DirectSound.CDirectSoundVoiceSettings.SetMixBins'.`2'.DefaultMixBins // ## UNPATCHED ## - 
__real@37aec33e=$0001F188;.real // ## UNPATCHED ## - 
?m_dwRefCount@CFpState@DirectSound@@0KA=$00088C8C;UNKNOWN // ## UNPATCHED ## - 
?m_fps@CFpState@DirectSound@@0U_KFLOATING_SAVE@@A=$00089304;UNKNOWN // ## UNPATCHED ## - 
__imp__KeSaveFloatingPointState@4=$000121C4;.imp..KeSaveFloatingPointState // ## UNPATCHED ## - 
__imp__KeRestoreFloatingPointState@4=$000121C8;.imp..KeRestoreFloatingPointState // ## UNPATCHED ## - 
__imp__KeRemoveQueueDpc@4=$000121D0;.imp..KeRemoveQueueDpc // ## UNPATCHED ## - 
_XapiAutoPowerDownGlobals=$0011C9A0;XapiAutoPowerDownGlobals // ## UNPATCHED ## - 
?m_Interrupt@CAc97Device@DirectSound@@1U_KINTERRUPT@@A=$00089290;unsigned __int32 // ## UNPATCHED ## - 
__imp__KeSynchronizeExecution@12=$000121D4;.imp..KeSynchronizeExecution // ## UNPATCHED ## - 
?adwChannelStatusMasks@?1??ServiceAciInterrupt@CAc97Device@DirectSound@@IAEKXZ@4QBKB=$00088C28;`DirectSound.CAc97Device.ServiceAciInterrupt'.`2'.wChannelStatusMasks // ## UNPATCHED ## - 
?CompleteSsl@CMcpxStream@DirectSound@@IAEXKK@Z=$0008399F;DirectSound.CMcpxStream.mpleteSsl volatile  // -- Patched -- 
?CompletePackets@CMcpxStream@DirectSound@@IAEXPAU_LIST_ENTRY@@K@Z=$000838D2;DirectSound.CMcpxStream.mpletePackets volatile  // ## UNPATCHED ## - 
?ReleaseStreamResources@CMcpxStream@DirectSound@@IAEXXZ=$000836F9;unsigned int const  // ## UNPATCHED ## - 
?CompleteDeferredPackets@CMcpxStream@DirectSound@@IAEXXZ=$00083948;DirectSound.CMcpxStream.mpleteDeferredPackets volatile  // ## UNPATCHED ## - 
?FreeVoices@CMcpxAPU@DirectSound@@QAEXPAVCMcpxVoiceClient@2@@Z=$0008278A;DirectSound.CMcpxAPU.eVoices // -- Patched -- 
__imp__XeLoadSection@4=$00012174;.imp..XeLoadSection // ## UNPATCHED ## - 
_wcsncpy=$00040B9B;wcsncpy // ## UNPATCHED ## - 
_g_fDirectSoundInFinalRelease=$00088C64;g.fDirectSoundInFinalRelease // ## UNPATCHED ## - 
?Initialize@CMcpxBuffer@DirectSound@@QAEJXZ=$00086118;DirectSound.CMcpxBuffer.tialize // ## UNPATCHED ## - 
_g_DirectSoundCriticalSection=$00088C70;g.DirectSoundCriticalSection // ## UNPATCHED ## - 
?m_wfxMixDest@CDirectSoundBufferSettings@DirectSound@@2UtWAVEFORMATEX@@B=$000884B8;UNKNOWN // ## UNPATCHED ## - 
_g_szDVDDevicePrefix=$00017D98;g.szDVDDevicePrefix // ## UNPATCHED ## - 
_LaunchDataPage=$0001200C;LaunchDataPage // ## UNPATCHED ## - 
?s_rgpfnxrldlHandlers@CXo@@1QBQ81@AEJPAUXRL_ASYNC@@@ZB=$0012585C;UNKNOWN // ## UNPATCHED ## - 
?OnEndOfStream@CMcpxStream@DirectSound@@IAEXXZ=$00083446;unsigned char volatile  // ## UNPATCHED ## - 
__imp__RtlEqualString@12=$00012170;.imp..RtlEqualString // ## UNPATCHED ## - 
?s_rgpfnxrlulHandlers@CXo@@1QBQ81@AEJPAUXRL_ASYNC@@@ZB=$00125878;UNKNOWN // -- Patched -- 
?OnPositionDelta@CMcpxBuffer@DirectSound@@IAEXXZ=$00085DF5;DirectSound.CMcpxBuffer.itionDelta // -- Patched -- 
_DefaultExec=$00088CA0;DefaultExec // ## UNPATCHED ## - 
__imp__NtWaitForMultipleObjectsEx@24=$00012064;.imp..NtWaitForMultipleObjectsEx // ## UNPATCHED ## - 
?FriendsAreBeingEnumerated@CXo@@IAEHK@Z=$000B85D6;CXo.endsAreBeingEnumerated // -- Patched -- 
_c_szUPnPMsg_Discover_Service_WANIPConnection=$00126430;c.szUPnPMsg.Discover.Service.WANIPConnection // ## UNPATCHED ## - 
_c_szUPnPMsg_Discover_Service_WANPPPConnection=$001264B8;c.szUPnPMsg.Discover.Service.WANPPPConnection // ## UNPATCHED ## - 
_x_rgdwTexCoordSize=$00080650;x.rgdwTexCoordSize // ## UNPATCHED ## - 
?GLOBAL_HostControllerCount@@3EA=$0011B320;OBAL_HostControllerCount volatile  // ## UNPATCHED ## - 
__imp__NtCreateEvent@16=$00012044;.imp..NtCreateEvent // ## UNPATCHED ## - 
__imp__HalInitiateShutdown@0=$0001217C;.imp..HalInitiateShutdown // ## UNPATCHED ## - 
__wcsnicmp=$0006083B;.wcsnicmp // ## UNPATCHED ## - 
__imp__NtQueryFullAttributesFile@8=$00012094;.imp..NtQueryFullAttributesFile // ## UNPATCHED ## - 
?m_pDirectSound@CDirectSound@DirectSound@@2PAV12@A=$00089300;UNKNOWN // ## UNPATCHED ## - 
?Initialize@CDirectSound@DirectSound@@QAGJXZ=$00081FAB;DirectSound.CDirectSound.tialize // -- Patched -- 
?SetBufferData@CMcpxBuffer@DirectSound@@QAEJXZ=$0008613C;unsigned char * volatile  // ## UNPATCHED ## - 
?ReleaseBufferData@CMcpxBuffer@DirectSound@@QAEJH@Z=$00086253;unsigned char * const  // ## UNPATCHED ## - 
?ReleaseBufferResources@CMcpxBuffer@DirectSound@@IAEXXZ=$00086156;unsigned int const  // ## UNPATCHED ## - 
__imp__HalIsResetOrShutdownPending@0=$00012120;.imp..HalIsResetOrShutdownPending // ## UNPATCHED ## - 
__imp__IoMarkIrpMustComplete@4=$0001211C;.imp..IoMarkIrpMustComplete // ## UNPATCHED ## - 
$T31034=$00017F20;$T31034 // ## UNPATCHED ## - 
__imp__PhyGetLinkState@4=$000121D8;.imp..PhyGetLinkState // ## UNPATCHED ## - 
$T30842=$00017DB8;$T30842 // ## UNPATCHED ## - 
__imp__PsTerminateSystemThread@4=$00012080;.imp..PsTerminateSystemThread // ## UNPATCHED ## - 
_XapiThreadNotifyRoutineList=$0011437C;XapiThreadNotifyRoutineList // ## UNPATCHED ## - 
_XapiProcessLock=$00114360;XapiProcessLock // ## UNPATCHED ## - 
_XapiCurrentTopLevelFilter=$0011CA84;XapiCurrentTopLevelFilter // ## UNPATCHED ## - 
__imp__IoStartPacket@12=$00012100;.imp..IoStartPacket // ## UNPATCHED ## - 
_XapiTlsSize=$0011CA88;XapiTlsSize // ## UNPATCHED ## - 
__imp__PsCreateSystemThreadEx@40=$00012084;.imp..PsCreateSystemThreadEx // ## UNPATCHED ## - 
?dwMagicWriteValue@?1??WaitForMagicWrite@CMcpxAPU@DirectSound@@IAEXXZ@4KA=$00089274;`DirectSound.CMcpxAPU.WaitForMagicWrite'.`2'.MagicWriteValue // ## UNPATCHED ## - 
$T31027=$00018188;$T31027 // ## UNPATCHED ## - 
_wcscpy=$0003FF09;wcscpy // -- Patched -- 
$T31058=$00018168;$T31058 // ## UNPATCHED ## - 
_wcscat=$0003FF33;wcscat // ## UNPATCHED ## - 
_sizetab=$00125E38;sizetab // ## UNPATCHED ## - 
_freefntab=$00125D68;freefntab // ## UNPATCHED ## - 
_decfntab=$00125C98;decfntab // ## UNPATCHED ## - 
_encfntab=$00125BC8;encfntab // ## UNPATCHED ## - 
?RemoveDeferredCommandHigh@CMcpxAPU@DirectSound@@IAEXPAUMCPX_DEFERRED_COMMAND@@@Z=$000829E8;unsigned int const  // -- Patched -- 
?m_dwDeltaPanicCount@CMcpxAPU@DirectSound@@0KA=$00089270;UNKNOWN // ## UNPATCHED ## - 
?GetStatus@CMcpxStream@DirectSound@@QAEJPAK@Z=$000833EC;DirectSound.CMcpxStream.tStatus volatile  // -- Patched -- 
__FPinit=$001149A0;.FPinit // ## UNPATCHED ## - 
_IdexChannelObject=$00012180;IdexChannelObject // ## UNPATCHED ## - 
_XapiShutdownIrpCompleteEvent=$00114958;XapiShutdownIrpCompleteEvent // ## UNPATCHED ## - 
_HalBootSMCVideoMode=$00012028;HalBootSMCVideoMode // ## UNPATCHED ## - 
__imp__IoInvalidDeviceRequest@8=$000120E4;.imp..IoInvalidDeviceRequest // ## UNPATCHED ## - 
_IID_ID3DXBaseMesh=$0001F168;IID.ID3DXBaseMesh // ## UNPATCHED ## - 
_IID_ID3DXMesh=$0001F158;IID.ID3DXMesh // ## UNPATCHED ## - 
__imp__NtCreateMutant@12=$00012058;.imp..NtCreateMutant // ## UNPATCHED ## - 
?m_dwStuckVoiceCount@CMcpxVoiceClient@DirectSound@@2KA=$00089278;UNKNOWN // ## UNPATCHED ## - 
?GetLowWatermark@CMcpxStream@DirectSound@@QAEKXZ=$0008082F;DirectSound.CMcpxStream.tLowWatermark volatile  // -- Patched -- 
?HandleIdleVoice@CMcpxAPU@DirectSound@@IAEXK@Z=$00082973;DirectSound.CMcpxAPU.ndleIdleVoice const volatile  // -- Patched -- 
?SetMixBins@CDirectSoundVoice@DirectSound@@QAGJPBU_DSMIXBINS@@@Z=$00080B48;unsigned short * volatile  // -- Patched -- 
?HasPendingData@CMcpxStream@DirectSound@@QAEHXZ=$000832BB;DirectSound.CMcpxStream.sPendingData const volatile  // ## UNPATCHED ## - 
_wcscmp=$00041269;wcscmp // ## UNPATCHED ## - 
__imp__RtlInitUnicodeString@8=$00012238;.imp..RtlInitUnicodeString // ## UNPATCHED ## - 
__imp__RtlFreeAnsiString@4=$00012234;.imp..RtlFreeAnsiString // ## UNPATCHED ## - 
_g_abOakleyGroup1BaseIntel=$000DCC68;g.abOakleyGroup1BaseIntel // ## UNPATCHED ## - 
_g_abOakleyGroup1ModIntel=$000DCC08;g.abOakleyGroup1ModIntel // ## UNPATCHED ## - 
?ScheduleDeferredCommandLow@CMcpxAPU@DirectSound@@IAEHPAUMCPX_DEFERRED_COMMAND@@@Z=$000829C3;unsigned int volatile  // ## UNPATCHED ## - 
__imp__KeSetTimerEx@20=$00012218;.imp..KeSetTimerEx // ## UNPATCHED ## - 
?XOnlineNotificationSetState@CXo@@QAEJKKUXNKID@@KPBE@Z=$000B8A9F;unsigned char * const volatile  // -- Patched -- 
?CacheFileDelete@CXo@@IAEJW4XONLC_TYPE@@@Z=$000C285C;CXo.cheFileDelete volatile  // -- Patched -- 
__imp__NtFlushBuffersFile@8=$000120C4;.imp..NtFlushBuffersFile // ## UNPATCHED ## - 
__imp__NtReleaseMutant@8=$0001205C;.imp..NtReleaseMutant // ## UNPATCHED ## - 
__imp__NtClearEvent@4=$00012054;.imp..NtClearEvent // ## UNPATCHED ## - 
__imp__XeUnloadSection@4=$00012178;.imp..XeUnloadSection // ## UNPATCHED ## - 
?IpXnAddrToInAddr@CXnIp@@QAEHPBUXNADDR@@PBUXNKID@@PAUCIpAddr@@@Z=$000D1241;CXnIp.nAddrToInAddr // -- Patched -- 
?sendto@CXnSock@@QAEHIPBDHHPBUsockaddr@@H@Z=$000CFAEB;CXnSock.ndto // -- Patched -- 
?_XOnlineSetUserAccountStatus@CXo@@QAEJKPAU_USER_ACCOUNT_STATUS_INFO@@HPAXPAPAUXONLINETASK_HANDLE__@@@Z=$000BED1C;unsigned long const & volatile  // -- Patched -- 
?_XOnlineSetUserAccountStatus@CXo@@QAEJKPAUUSER_ACCOUNT_STATUS_INFO@@HPAXPAPAUXONLINETASK_HANDLE__@@@Z=$000BDA28;unsigned long const & volatile  // -- Patched -- 
?_XOnlineSetPaymentInfo@CXo@@QAEJKPBEPBUUSER_PAYMENT_INFO@@PAXPAPAUXONLINETASK_HANDLE__@@@Z=$000BC559;unsigned long const & volatile  // -- Patched -- 
?XOnlineFriendsJoinGame@CXo@@QAEJKPBU_XONLINE_FRIEND@@@Z=$000BDFF3;unsigned char * const volatile  // -- Patched -- 
?XOnlineFriendsRemove@CXo@@QAEJKPAUXONLINE_FRIEND@@@Z=$000BE0D2;unsigned char * const volatile  // -- Patched -- 
?XOnlineFriendsJoinGame@CXo@@QAEJKPBUXONLINE_FRIEND@@@Z=$000BEBB3;unsigned char * const volatile  // -- Patched -- 
?XOnlineFriendsGetAcceptedGameInvite@CXo@@QAEJPAU_XONLINE_ACCEPTED_GAMEINVITE@@@Z=$000BE657;unsigned char * const volatile  // -- Patched -- 
?XOnlineFriendsGetAcceptedGameInvite@CXo@@QAEJPAUXONLINE_ACCEPTED_GAMEINVITE@@@Z=$000BD367;unsigned char * const volatile  // -- Patched -- 
?XOnlineFriendsEnumerate@CXo@@QAEJKPAXPAPAUXONLINETASK_HANDLE__@@@Z=$000BDDE5;unsigned char * const volatile  // -- Patched -- 
?XOnlineFriendsAnswerRequest@CXo@@QAEJKPBU_XONLINE_FRIEND@@W4XONLINE_REQUEST_ANSWER_TYPE@@@Z=$000B2D8B;unsigned char * const volatile  // -- Patched -- 
?XOnlineFriendsAnswerRequest@CXo@@QAEJKPAUXONLINE_FRIEND@@W4XONLINE_REQUEST_ANSWER_TYPE@@@Z=$000BE913;unsigned char * const volatile  // -- Patched -- 
?XOnlineFriendsAnswerGameInvite@CXo@@QAEJKPBU_XONLINE_FRIEND@@W4XONLINE_GAMEINVITE_ANSWER_TYPE@@@Z=$000BA014;unsigned char * const volatile  // -- Patched -- 
?XOnlineFriendsAnswerGameInvite@CXo@@QAEJKPAUXONLINE_FRIEND@@W4XONLINE_GAMEINVITE_ANSWER_TYPE@@@Z=$000B2BD7;unsigned char * const volatile  // -- Patched -- 
?XOnlineEnumerateTitlesGetResults@CXo@@QAEJPAUXONLINETASK_HANDLE__@@PAPAKPAK@Z=$000BDC9C;unsigned char * const volatile  // -- Patched -- 
?XOnlineEnumerateTitlesContinue@CXo@@QAEJPAUXONLINETASK_HANDLE__@@@Z=$000BD54E;unsigned char * const volatile  // ## UNPATCHED ## - 
?XOnlineEnumerateTitlesBegin@CXo@@QAEJKPAXPAPAUXONLINETASK_HANDLE__@@@Z=$000B31F4;unsigned char * const volatile  // -- Patched -- 
?XOnlineDownloadGetProgress@CXo@@QAEJPAUXONLINETASK_HANDLE__@@PAKPAT_ULARGE_INTEGER@@2@Z=$000B9E0C;unsigned char * const volatile  // -- Patched -- 
?XOnlineContentSetSecurityKey@CXo@@QAEJPAE@Z=$000B7E2B;unsigned char * const volatile  // -- Patched -- 
?XOnlineContentInstallGetProgress@CXo@@QAEJPAUXONLINETASK_HANDLE__@@PAKPA_K2@Z=$000BB419;unsigned char * const volatile  // -- Patched -- 
?XOnlineChangeLogonUsersTaskGetResults@CXo@@QAEJPAUXONLINETASK_HANDLE__@@PAJ@Z=$000BB3E4;unsigned char * const volatile  // -- Patched -- 
?XNetInAddrToString@CXn@@QAEHUin_addr@@PADH@Z=$000CEA22;unsigned char * const volatile  // -- Patched -- 
?XNetGetConnectStatus@CXn@@QAEKUin_addr@@@Z=$000D015A;unsigned char * const volatile  // -- Patched -- 
?_XOnlineTroubleshootAccountResults@CXo@@QAEJPAUXONLINETASK_HANDLE__@@PAUUSER_ACCOUNT_STATUS_INFO@@@Z=$000B235B;XONLINETASK_HANDLE__ * const & volatile  // -- Patched -- 
_g_dwDirectSoundPhysicalMemoryRecovered=$00088C50;g.dwDirectSoundPhysicalMemoryRecovered // ## UNPATCHED ## - 
_g_dwDirectSoundPhysicalMemoryUsage=$00088C48;g.dwDirectSoundPhysicalMemoryUsage // ## UNPATCHED ## - 
_g_dwDirectSoundPhysicalMemorySlop=$00088C4C;g.dwDirectSoundPhysicalMemorySlop // ## UNPATCHED ## - 
_g_dwDirectSoundPoolMemoryUsage=$00088C44;g.dwDirectSoundPoolMemoryUsage // ## UNPATCHED ## - 
_vswprintf=$00041804;vswprintf // ## UNPATCHED ## - 
?ServiceDeferredCommandsHigh@CMcpxAPU@DirectSound@@IAEXXZ=$00082A4A;unsigned int volatile  // ## UNPATCHED ## - 
?ServiceApuInterruptDpc@CMcpxAPU@DirectSound@@IAEXXZ=$00082E38;unsigned int volatile  // ## UNPATCHED ## - 
?GetInterruptStatusCallback@CMcpxAPU@DirectSound@@CGEPAX@Z=$000828D9;DirectSound.CMcpxAPU.tInterruptStatusCallback volatile  // -- Patched -- 
?m_Interrupt@CMcpxAPU@DirectSound@@1U_KINTERRUPT@@A=$00089330;unsigned __int32 // ## UNPATCHED ## - 
?ServiceVoiceInterrupt@CMcpxAPU@DirectSound@@IAEXXZ=$00082860;unsigned int volatile  // -- Patched -- 
?ServiceApuInterrupt@CMcpxAPU@DirectSound@@IAEHXZ=$00083018;unsigned int volatile  // ## UNPATCHED ## - 
__real@3b808081=$0001E760;.real // ## UNPATCHED ## - 
_D3DDevice_SetTexture@8=$00067B60;D3DDevice.SetTexture // ## UNPATCHED ## - 
?SwapSaveSurfaces@D3D@@YGXPAVCDevice@1@@Z=$00068970;D3D.GXPAVCDevice volatile  // -- Patched -- 
?SwapCopyBlt@D3D@@YGXPAVCDevice@1@@Z=$00068A30;D3D.GXPAVCDevice volatile  // ## UNPATCHED ## - 
?SwapRestoreSurfaces@D3D@@YGXPAVCDevice@1@@Z=$000689D0;D3D.GXPAVCDevice volatile  // -- Patched -- 
__real@40800000=$0001D4AC;.real // ## UNPATCHED ## - 
_IID_IUnknown=$0001F2F4;IID.IUnknown // ## UNPATCHED ## - 
__real@2edbe6fe=$0001F064;.real // ## UNPATCHED ## - 
__real@bf800000=$0001D188;.real // ## UNPATCHED ## - 
_IID_ID3DXSkinMesh=$0001F178;IID.ID3DXSkinMesh // ## UNPATCHED ## - 
?m_vtable@CHRTFSource@DirectSound@@0UHRTFSOURCEVECTORTABLE@@A=$00012014;UNKNOWN // ## UNPATCHED ## - 
_XcRC4Crypt@12=$00062AB0;XcRC4Crypt // ## UNPATCHED ## - 
__imp__ExAllocatePoolWithTag@8=$00012118;.imp..ExAllocatePoolWithTag // -- Patched -- 
__imp__KeStallExecutionProcessor@4=$0001216C;.imp..KeStallExecutionProcessor // ## UNPATCHED ## - 
__imp__ExFreePool@4=$0001210C;.imp..ExFreePool // ## UNPATCHED ## - 
__stricmp=$00040ACA;.stricmp // ## UNPATCHED ## - 
__strnicmp=$00060CA5;.strnicmp // ## UNPATCHED ## - 
_strncpy=$0003FFD0;strncpy // ## UNPATCHED ## - 
__imp__KeQueryPerformanceCounter@0=$0001221C;.imp..KeQueryPerformanceCounter // ## UNPATCHED ## - 
_atoi=$00040E11;atoi // ## UNPATCHED ## - 
_XcKeyTable@12=$00062A9E;XcKeyTable // ## UNPATCHED ## - 
_XcHMAC@28=$00062AAA;XcHMAC // ## UNPATCHED ## - 
_XcBlockCryptCBC@28=$00062A98;XcBlockCryptCBC // ## UNPATCHED ## - 
__imp__KeQueryPerformanceFrequency@0=$00012220;.imp..KeQueryPerformanceFrequency // ## UNPATCHED ## - 
__allmul=$000417D0;.allmul // ## UNPATCHED ## - 
__alldiv=$000418D0;.alldiv // ## UNPATCHED ## - 
$T15613=$00017FA8;$T15613 // ## UNPATCHED ## - 
_memmove=$000401F0;memmove // ## UNPATCHED ## - 
__imp_@ObfDereferenceObject@4=$00012074;.imp. // ## UNPATCHED ## - 
_tcpipxsum@12=$000DC4F0;tcpipxsum // ## UNPATCHED ## - 
?g_dwNumKerbRetry@@3KA=$00116D24;UNKNOWN // ## UNPATCHED ## - 
__imp__RtlAnsiStringToUnicodeString@12=$00012088;.imp..RtlAnsiStringToUnicodeString // ## UNPATCHED ## - 
__imp__RtlNtStatusToDosError@4=$00012024;.imp..RtlNtStatusToDosError // ## UNPATCHED ## - 
_offsetsFromUTF8=$00114388;offsetsFromUTF8 // ## UNPATCHED ## - 
_bytesFromUTF8=$001143A0;bytesFromUTF8 // ## UNPATCHED ## - 
_kMaximumSimpleUniChar=$001144A4;kMaximumSimpleUniChar // ## UNPATCHED ## - 
_kMaximumUniChar=$001144A8;kMaximumUniChar // ## UNPATCHED ## - 
_kReplacementCharacter=$001144A0;kReplacementCharacter // ## UNPATCHED ## - 
_halfBase=$001144B0;halfBase // ## UNPATCHED ## - 
_halfShift=$001144AC;halfShift // ## UNPATCHED ## - 
_kSurrogateHighStart=$001144B8;kSurrogateHighStart // ## UNPATCHED ## - 
_halfMask=$001144B4;halfMask // ## UNPATCHED ## - 
_kSurrogateLowStart=$001144BC;kSurrogateLowStart // ## UNPATCHED ## - 
__imp__RtlTimeFieldsToTime@8=$000120AC;.imp..RtlTimeFieldsToTime // ## UNPATCHED ## - 
__imp__NtSetSystemTime@8=$00012230;.imp..NtSetSystemTime // ## UNPATCHED ## - 
?g_pXn@@3PAVCXn@@A=$0011C748;UNKNOWN // -- Patched -- 
__imp__KeQuerySystemTime@4=$000120A4;.imp..KeQuerySystemTime // ## UNPATCHED ## - 
_XcRC4Key@12=$00062AB6;XcRC4Key // ## UNPATCHED ## - 
_g_liJanOne2002=$000DCDA0;g.liJanOne2002 // ## UNPATCHED ## - 
$T31050=$00017F30;$T31050 // ## UNPATCHED ## - 
_XboxHDKey=$000121E0;XboxHDKey // ## UNPATCHED ## - 
_XcDESKeyParity@8=$00062AA4;XcDESKeyParity // ## UNPATCHED ## - 
__imp__NtWaitForSingleObjectEx@16=$00012060;.imp..NtWaitForSingleObjectEx // ## UNPATCHED ## - 
?g_xonCacheParams@@3QAY04$$CBGA=$00125F08;UNKNOWN // ## UNPATCHED ## - 
__imp__NtWaitForSingleObject@12=$000120B0;.imp..NtWaitForSingleObject // ## UNPATCHED ## - 
__imp__NtWriteFile@32=$000120B8;.imp..NtWriteFile // ## UNPATCHED ## - 
__imp__NtReadFile@32=$000120B4;.imp..NtReadFile // ## UNPATCHED ## - 
_KeTickCount=$000120A8;KeTickCount // ## UNPATCHED ## - 
__imp__NtSetEvent@8=$00012050;.imp..NtSetEvent // ## UNPATCHED ## - 
?g_dwKerbRetryDelayInMilliSeconds@@3PAKA=$00116D2C;UNKNOWN // ## UNPATCHED ## - 
?g_KerbGlobalWillNeverTime@@3T_LARGE_INTEGER@@A=$00116D70;unsigned __int64 // ## UNPATCHED ## - 
?g_RC4HMAC_CryptList@@3UKERB_KDC_REQUEST_BODY_encryption_type_s@@A=$00116D68;UNKNOWN // ## UNPATCHED ## - 
__imp__RtlTimeToTimeFields@8=$000120A0;.imp..RtlTimeToTimeFields // ## UNPATCHED ## - 
__allrem=$00060D20;.allrem // ## UNPATCHED ## - 
?g_LastSystemTime@@3T_LARGE_INTEGER@@A=$0011C7D8;__int128 // ## UNPATCHED ## - 
?g_uiUniqueOffset@@3IA=$0011C7E0;UNKNOWN // ## UNPATCHED ## - 
?g_ClientVersion@@3U_XBOX_LIBRARY_VERSION@@B=$00126248;UNKNOWN // ## UNPATCHED ## - 
__imp_@KfRaiseIrql@4=$00012160;.imp. // ## UNPATCHED ## - 
_xnkidZero=$0011C750;xnkidZero // ## UNPATCHED ## - 
?DNSLookupContinue@CXo@@IAEJPAUXONLINETASK_HANDLE__@@@Z=$000B36BC;double const volatile  // -- Patched -- 
_strchr=$00044290;strchr // ## UNPATCHED ## - 
_toupper=$00060DD2;toupper // ## UNPATCHED ## - 
_XcSHAInit@4=$00046BA8;XcSHAInit // ## UNPATCHED ## - 
_XcSHAUpdate@12=$00046BA2;XcSHAUpdate // ## UNPATCHED ## - 
_XcSHAFinal@8=$00046B9C;XcSHAFinal // ## UNPATCHED ## - 
?sm_2ndLevelHub@IUsbInit@@0EA=$000DCEF0;IUsbInit._2ndLevelHub // ## UNPATCHED ## - 
__imp__NtClose@4=$00012200;.imp..NtClose // ## UNPATCHED ## - 
_XapiProtectTypeToFlags=$00116E18;XapiProtectTypeToFlags // ## UNPATCHED ## - 
__imp__NtQueryInformationFile@20=$000120BC;.imp..NtQueryInformationFile // ## UNPATCHED ## - 
__imp__NtSetInformationFile@20=$00012090;.imp..NtSetInformationFile // ## UNPATCHED ## - 
_wcslen=$00040B85;wcslen // ## UNPATCHED ## - 
_c_nSignMask=$001269D4;c.nSignMask // ## UNPATCHED ## - 
__imp_@IofCompleteRequest@8=$00012104;.imp. // ## UNPATCHED ## - 
__imp__IoStartNextPacket@4=$00012108;.imp..IoStartNextPacket // ## UNPATCHED ## - 
__imp__KeSetTimer@16=$00012124;.imp..KeSetTimer // ## UNPATCHED ## - 
_tagMU_CORRUPT_SECTOR_PATTERN=$000E5674;tagMU.CORRUPT.SECTOR.PATTERN // ## UNPATCHED ## - 
_bitmsk2=$001269CC;bitmsk2 // ## UNPATCHED ## - 
_c_aBitMask=$00126A18;c.aBitMask // ## UNPATCHED ## - 
_c_aBitMask2=$001269C0;c.aBitMask2 // ## UNPATCHED ## - 
__imp__KeCancelTimer@4=$00012128;.imp..KeCancelTimer // ## UNPATCHED ## - 
__imp__NtCreateFile@36=$0001209C;.imp..NtCreateFile // ## UNPATCHED ## - 
__imp__RtlInitAnsiString@8=$0001204C;.imp..RtlInitAnsiString // ## UNPATCHED ## - 
__imp__NtQueryDirectoryFile@40=$00012098;.imp..NtQueryDirectoryFile // ## UNPATCHED ## - 
__imp__NtOpenFile@24=$00012018;.imp..NtOpenFile // ## UNPATCHED ## - 
_ExQueryNonVolatileSetting@20=$00046B90;ExQueryNonVolatileSetting // ## UNPATCHED ## - 
__imp__MmQueryAddressProtect@4=$00012114;.imp..MmQueryAddressProtect // -- Patched -- 
__imp__MmSetAddressProtect@12=$00012110;.imp..MmSetAddressProtect // ## UNPATCHED ## - 
?s_InterruptObject@CXnNic@@0U_KINTERRUPT@@A=$0011C768;unsigned __int32 // ## UNPATCHED ## - 
__imp__PhyInitialize@8=$000121DC;.imp..PhyInitialize // ## UNPATCHED ## - 
_c_TagTable=$001269E4;c.TagTable // ## UNPATCHED ## - 
$T30565=$00017F50;$T30565 // ## UNPATCHED ## - 
_c_LengthTable=$001269F8;c.LengthTable // ## UNPATCHED ## - 
__imp__MmAllocateContiguousMemory@4=$00012030;.imp..MmAllocateContiguousMemory // ## UNPATCHED ## - 
_g_rgdwLoc=$00114518;g.rgdwLoc // ## UNPATCHED ## - 
?s_rgnSymLookup@?1??xCompareStringW@@9@9=$00114968;UNKNOWN // ## UNPATCHED ## - 
?g_pXo@@3PAVCXo@@A=$0011C738;UNKNOWN // ## UNPATCHED ## - 
__imp__HalReturnToFirmware@4=$00012008;.imp..HalReturnToFirmware // ## UNPATCHED ## - 
?GetUserFromID@CXo@@IAEPAUXPRESENCE_USER@@_K@Z=$000B85F1;CXo.tUserFromID volatile  // -- Patched -- 
?GetUserIndexFromID@CXo@@IAEK_K@Z=$000B8627;CXo.tUserIndexFromID volatile  // -- Patched -- 
_NtGlobalFlag=$0011CA78;NtGlobalFlag // ## UNPATCHED ## - 
$T15351=$00017F78;$T15351 // ## UNPATCHED ## - 
_MmHeapSegmentReserve=$001144D0;MmHeapSegmentReserve // ## UNPATCHED ## - 
_MmHeapSegmentCommit=$001144D4;MmHeapSegmentCommit // ## UNPATCHED ## - 
_MmHeapDeCommitFreeBlockThreshold=$001144DC;MmHeapDeCommitFreeBlockThreshold // ## UNPATCHED ## - 
_MmHeapDeCommitTotalFreeThreshold=$001144D8;MmHeapDeCommitTotalFreeThreshold // ## UNPATCHED ## - 
__imp__NtQueryVirtualMemory@8=$0001213C;.imp..NtQueryVirtualMemory // ## UNPATCHED ## - 
_ExEventObjectType=$00012048;ExEventObjectType // ## UNPATCHED ## - 
__imp__RtlInitializeCriticalSection@4=$00012138;.imp..RtlInitializeCriticalSection // ## UNPATCHED ## - 
__imp__ObReferenceObjectByHandle@12=$00012078;.imp..ObReferenceObjectByHandle // ## UNPATCHED ## - 
_c_U32LengthTable=$00126A08;c.U32LengthTable // ## UNPATCHED ## - 
?g_dwNumMACSRetry@@3KA=$00116D28;UNKNOWN // ## UNPATCHED ## - 
?GLOBAL_HubEnum@@3U_USBHUB_ENUM_BLOCK@@A=$0011B410;OBAL_HubEnum volatile  // ## UNPATCHED ## - 
_USBD_BeginClassDescriptionTable=$000DCED0;USBD.BeginClassDescriptionTable // ## UNPATCHED ## - 
_XboxKrnlVersion=$00012158;XboxKrnlVersion // ## UNPATCHED ## - 
_USBD_EndClassDescriptionTable=$000DCEEC;USBD.EndClassDescriptionTable // ## UNPATCHED ## - 
__allshl=$00060D00;.allshl // ## UNPATCHED ## - 
_XapiChangeCodeSelectorLimit@8=$0003FEE4;XapiChangeCodeSelectorLimit // ## UNPATCHED ## - 
_XapiOriginalCodeSelectorEntry=$0011CA70;XapiOriginalCodeSelectorEntry // ## UNPATCHED ## - 
__imp__NtDeviceIoControlFile@40=$000120CC;.imp..NtDeviceIoControlFile // ## UNPATCHED ## - 
__imp__NtFsControlFile@40=$000120C8;.imp..NtFsControlFile // ## UNPATCHED ## - 
_XePublicKeyData=$00012144;XePublicKeyData // ## UNPATCHED ## - 
_XcVerifyPKCS1Signature@12=$00046B96;XcVerifyPKCS1Signature // ## UNPATCHED ## - 
?c_szResponseHeaders@@3PAPBDA=$00116D78;UNKNOWN // ## UNPATCHED ## - 
$T30556=$00018198;$T30556 // ## UNPATCHED ## - 
__imp__RtlUnicodeStringToAnsiString@12=$0001208C;.imp..RtlUnicodeStringToAnsiString // ## UNPATCHED ## - 
__aulldiv=$00041980;.aulldiv // ## UNPATCHED ## - 
?fInitialized@?1??XID_Init@@9@4@4HA=$000DD140;unsigned int // ## UNPATCHED ## - 
?XID_BeginTypeDescriptionTable@@3KA=$000DCEC0; ?? .KA const volatile  // ## UNPATCHED ## - 
?XID_EndTypeDescriptionTable@@3KA=$000DCECC; ?? .KA const volatile  // ## UNPATCHED ## - 
?XID_Globals@@3U_XID_GLOBALS@@A=$0011C7E8;U_XID_GLOBALS const volatile  // ## UNPATCHED ## - 
_XID_Description=$000DD104;XID.Description // ## UNPATCHED ## - 
_XID_1Description=$000DD11C;XID.1Description // ## UNPATCHED ## - 
?XID_gResourceRequirements@@3U_USB_RESOURCE_REQUIREMENTS@@A=$000DD134;U_USB_RESOURCE_REQUIREMENTS const volatile  // ## UNPATCHED ## - 
?USBD_PageZeroBytesRemaining@@3KA=$000DCF9C; ?? .KA // ## UNPATCHED ## - 
?m_dwUsed@CMcpxSlopMemoryHeap@DirectSound@@2AAKA=$000893A0;UNKNOWN // ## UNPATCHED ## - 
?m_adwRegisterOffsets@CAc97Channel@DirectSound@@2QBKB=$00088C1C;UNKNOWN // ## UNPATCHED ## - 
_IsrEntryCount=$0011B4D4;IsrEntryCount // ## UNPATCHED ## - 
?g_rgdwServiceVersions@@3QBKB=$00126190;UNKNOWN // ## UNPATCHED ## - 
?XRL_HEADER_POST_AND_AGENT_11@@3QBDB=$001260D0; ?? .QBDB const volatile  // ## UNPATCHED ## - 
?XRL_HEADER_POST_AND_AGENT@@3QBDB=$00126100; ?? .QBDB const volatile  // ## UNPATCHED ## - 
?XRL_HEADER_CONTENTTYPE@@3QBDB=$001260B8; ?? .QBDB const volatile  // ## UNPATCHED ## - 
?XRL_HEADER_CONTENT_LENGTH@@3QBDB=$0012608C; ?? .QBDB const volatile  // ## UNPATCHED ## - 
?XRL_HEADER_RETURN@@3QBDB=$00126064; ?? .QBDB const volatile  // ## UNPATCHED ## - 
?GLOBAL_HubInfo@@3U_USBHUB_INFO@@A=$0011B4C8;OBAL_HubInfo volatile  // ## UNPATCHED ## - 
_strtok=$0005FE55;strtok // ## UNPATCHED ## - 
?c_szElementStack_service@@3PAPBDA=$00116DD0;UNKNOWN // ## UNPATCHED ## - 
?XRL_HEADER_CONTENTLENGTH@@3QBDB=$00126054; ?? .QBDB const volatile  // ## UNPATCHED ## - 
__atoi64=$00040E16;.atoi64 // ## UNPATCHED ## - 
?XRL_HEADER_LASTMODIFIED@@3QBDB=$0012603C; ?? .QBDB const volatile  // ## UNPATCHED ## - 
?XRL_HEADER_DATE@@3QBDB=$0012604C; ?? .QBDB const volatile  // ## UNPATCHED ## - 
?XRL_HEADER_XERR@@3QBDB=$0012602C; ?? .QBDB const volatile  // ## UNPATCHED ## - 
?XRL_HEADER_HTTP@@3QBDB=$00126034; ?? .QBDB const volatile  // ## UNPATCHED ## - 
?g_rgszDays@@3QAY03$$CBDA=$00126010;UNKNOWN // ## UNPATCHED ## - 
_atol=$00040DB9;atol // ## UNPATCHED ## - 
?g_rgszMonths@@3QAY03$$CBDA=$00125FDC;UNKNOWN // ## UNPATCHED ## - 
?m_ctxMemory@CMcpxCore@DirectSound@@2PAUMCPX_ALLOC_CONTEXT@@A=$000893A8;UNKNOWN // ## UNPATCHED ## - 
_OHCD_InterruptObject=$0011CA00;OHCD.InterruptObject // ## UNPATCHED ## - 
$T31043=$00018178;$T31043 // ## UNPATCHED ## - 
__imp__MmLockUnlockPhysicalPage@8=$00012190;.imp..MmLockUnlockPhysicalPage // ## UNPATCHED ## - 
?XRL_HEADER_GET_AND_AGENT@@3QBDB=$00126160; ?? .QBDB const volatile  // ## UNPATCHED ## - 
?XRL_HEADER_GET_AND_AGENT_10@@3QBDB=$00126130; ?? .QBDB const volatile  // ## UNPATCHED ## - 
?XRL_HEADER_HOST@@3QBDB=$001260A4; ?? .QBDB const volatile  // ## UNPATCHED ## - 
?XRL_HEADER_IFRANGE@@3QBDB=$0012607C; ?? .QBDB const volatile  // ## UNPATCHED ## - 
?XRL_HEADER_RANGE@@3QBDB=$00126068; ?? .QBDB const volatile  // ## UNPATCHED ## - 
__real@44fa0000=$0001F208;.real // ## UNPATCHED ## - 
__real@473b8000=$0001F290;.real // ## UNPATCHED ## - 
?pi@?1??Get1PoleLoPass@CI3dl2Source@DirectSound@@AAEHJJMM@Z@4MB=$00088BE8;`DirectSound.CI3dl2Source.Get1PoleLoPass'.`2'. // ## UNPATCHED ## - 
__real@3ff0000000000000=$0001D190;.real // ## UNPATCHED ## - 
__real@47800000=$0001F28C;.real // ## UNPATCHED ## - 
__real@3a03126f=$0001F288;.real // ## UNPATCHED ## - 
?AddSynchVoice@CMcpxAPU@DirectSound@@QAEJPAVCMcpxVoiceClient@2@@Z=$00082BDD;DirectSound.CMcpxAPU.dSynchVoice // ## UNPATCHED ## - 
?RemoveSynchVoice@CMcpxAPU@DirectSound@@QAEXPAVCMcpxVoiceClient@2@@Z=$00082C04;unsigned char * const  // ## UNPATCHED ## - 
__allshr=$000419F0;.allshr // ## UNPATCHED ## - 
?m_pSlopMemoryHeap@CMcpxSlopMemoryHeap@DirectSound@@2PAV12@A=$00089284;UNKNOWN // ## UNPATCHED ## - 
?m_adwEPOutputBufferSizes@CMcpxCore@DirectSound@@2QBKB=$00088BF4;UNKNOWN // ## UNPATCHED ## - 
__imp__ExQueryPoolBlockSize@4=$000121CC;.imp..ExQueryPoolBlockSize // ## UNPATCHED ## - 
_AC3SuperExec=$0011E3E0;AC3SuperExec // ## UNPATCHED ## - 
?m_dwPoolMemoryUsage@CMemoryManager@DirectSound@@2AAKA=$00089328;UNKNOWN // ## UNPATCHED ## - 
_AC3Loader=$0011E700;AC3Loader // ## UNPATCHED ## - 
_AC3ConfigTable=$00125500;AC3ConfigTable // ## UNPATCHED ## - 
_AC3Dolby6=$001251D8;AC3Dolby6 // ## UNPATCHED ## - 
_AC3Dolby5=$00124EE8;AC3Dolby5 // ## UNPATCHED ## - 
_AC3Dolby4=$00123398;AC3Dolby4 // ## UNPATCHED ## - 
_AC3Dolby3=$00121A50;AC3Dolby3 // ## UNPATCHED ## - 
_AC3Dolby2=$0011F8C8;AC3Dolby2 // ## UNPATCHED ## - 
_AC3Dolby1=$0011ED00;AC3Dolby1 // ## UNPATCHED ## - 
_XapiMountMUCriticalSection=$000DCF7C;XapiMountMUCriticalSection // ## UNPATCHED ## - 
_XapiMuInfo=$0011B318;XapiMuInfo // ## UNPATCHED ## - 
__imp__IoDeleteSymbolicLink@4=$000120F0;.imp..IoDeleteSymbolicLink // ## UNPATCHED ## - 
?ListRegisters@?1??RemoveIdleVoice@CMcpxVoiceClient@DirectSound@@AAEXH@Z@4QBU__unnamed@23@B=$00088ADC;`DirectSound.CMcpxVoiceClient.RemoveIdleVoice'.`2'.stRegisters const volatile  // ## UNPATCHED ## - 
?m_dwPhysicalMemoryUsage@CMemoryManager@DirectSound@@2AAKA=$00089324;UNKNOWN // -- Patched -- 
?m_dwAvailable@CMcpxSlopMemoryHeap@DirectSound@@2AAKA=$000893A4;UNKNOWN // ## UNPATCHED ## - 
?Initialize@CMcpxStream@DirectSound@@QAEJXZ=$000832D3;DirectSound.CMcpxStream.tialize // ## UNPATCHED ## - 
?AllocateVoices@CMcpxAPU@DirectSound@@QAEJPAVCMcpxVoiceClient@2@@Z=$000826F6;DirectSound.CMcpxAPU.locateVoices // -- Patched -- 
?ConvertMixBinValues@CMcpxVoiceClient@DirectSound@@IAEXPAK0@Z=$000842A2;DirectSound.CMcpxVoiceClient.nvertMixBinValues volatile  // -- Patched -- 
?ConvertVolumeValues@CMcpxVoiceClient@DirectSound@@IAEXPAUMCPX_VOICE_VOLUME@@@Z=$00084377;DirectSound.CMcpxVoiceClient.nvertVolumeValues volatile  // -- Patched -- 
_OHCD_PoolAllocateTD@4=$000E388D;OHCD.PoolAllocateTD // ## UNPATCHED ## - 
_OHCD_PoolDebitBulkTDQuota@4=$000E38CC;OHCD.PoolDebitBulkTDQuota // ## UNPATCHED ## - 
_OHCD_PoolDebitControlTDQuota@4=$000E38AD;OHCD.PoolDebitControlTDQuota // -- Patched -- 
_OHCD_PoolFreeTD@4=$000E25BB;OHCD.PoolFreeTD // ## UNPATCHED ## - 
_OHCD_RootHubResetDpc@16=$000E24D1;OHCD.RootHubResetDpc // ## UNPATCHED ## - 
_OHCD_ShutDown@4=$000E1431;OHCD.ShutDown // ## UNPATCHED ## - 
_OutputDebugStringA@4=$0003C70C;OutputDebugStringA // ## UNPATCHED ## - 
_OutputDebugStringW@4=$0005F749;OutputDebugStringW // ## UNPATCHED ## - 
_ReleaseMutex@4=$0003A330;ReleaseMutex // ## UNPATCHED ## - 
_SetEvent@4=$0003A29A;SetEvent // -- Patched -- 
_QueryPerformanceCounter@4=$00039FAF;QueryPerformanceCounter // ## UNPATCHED ## - 
_QueryPerformanceFrequency@4=$00039FC0;QueryPerformanceFrequency // ## UNPATCHED ## - 
_RaiseException@16=$0003A4F6;RaiseException // ## UNPATCHED ## - 
_ReadFile@20=$0003B36E;ReadFile // ## UNPATCHED ## - 
_RtlAllocateHeap@12=$0003DDBF;RtlAllocateHeap // ## UNPATCHED ## - 
_RtlCreateHeap@24=$0003D99B;RtlCreateHeap // ## UNPATCHED ## - 
_RtlDestroyHeap@4=$0003CF90;RtlDestroyHeap // ## UNPATCHED ## - 
_RtlFreeHeap@12=$0003E576;RtlFreeHeap // ## UNPATCHED ## - 
_RtlpCoalesceFreeBlocks@16=$0003CBD5;RtlpCoalesceFreeBlocks // ## UNPATCHED ## - 
_RtlpCreateUnCommittedRange@4=$0003C844;RtlpCreateUnCommittedRange // ## UNPATCHED ## - 
_RtlpCutoverTimeToSystemTime@16=$0003AF57;RtlpCutoverTimeToSystemTime // ## UNPATCHED ## - 
_RtlpDeCommitFreeBlock@12=$0003D6F1;RtlpDeCommitFreeBlock // ## UNPATCHED ## - 
_RtlpDestroyHeapSegment@4=$0003CBA3;RtlpDestroyHeapSegment // ## UNPATCHED ## - 
_RtlpDestroyUnCommittedRange@8=$0003C964;RtlpDestroyUnCommittedRange // ## UNPATCHED ## - 
_RtlpExtendHeap@8=$0003D56A;RtlpExtendHeap // ## UNPATCHED ## - 
_RtlpFindAndCommitPages@16=$0003CA18;RtlpFindAndCommitPages // ## UNPATCHED ## - 
_RtlpGetExtraStuffPointer@4=$0003CF74;RtlpGetExtraStuffPointer // ## UNPATCHED ## - 
_RtlpGrowBlockInPlace@20=$0003D01F;RtlpGrowBlockInPlace // ## UNPATCHED ## - 
_RtlpInitializeHeapSegment@28=$0003D44C;RtlpInitializeHeapSegment // ## UNPATCHED ## - 
_RtlpInsertFreeBlock@12=$0003CE7A;RtlpInsertFreeBlock // ## UNPATCHED ## - 
_RtlpInsertUnCommittedPages@12=$0003C985;RtlpInsertUnCommittedPages // ## UNPATCHED ## - 
_RtlReAllocateHeap@16=$0003E76A;RtlReAllocateHeap // ## UNPATCHED ## - 
_RtlSizeHeap@12=$0003D41D;RtlSizeHeap // ## UNPATCHED ## - 
_SetEndOfFile@4=$0003B531;SetEndOfFile // ## UNPATCHED ## - 
_SetFilePointer@16=$0003B5B5;SetFilePointer // ## UNPATCHED ## - 
_SetFilePointerEx@20=$0003B6AF;SetFilePointerEx // ## UNPATCHED ## - 
_SetLastError@4=$0003C3B1;SetLastError // ## UNPATCHED ## - 
_SetUnhandledExceptionFilter@4=$0003A54C;SetUnhandledExceptionFilter // ## UNPATCHED ## - 
_SleepEx@8=$0003A414;SleepEx // -- Patched -- 
_SystemTimeToFileTime@8=$0003AEAB;SystemTimeToFileTime // ## UNPATCHED ## - 
_UnhandledExceptionFilter@4=$0003A5A7;UnhandledExceptionFilter // ## UNPATCHED ## - 
_UnicodeToUTF8@16=$0003A84C;UnicodeToUTF8 // ## UNPATCHED ## - 
_USBD_AllocateMemory@8=$000DF61B;USBD.AllocateMemory // ## UNPATCHED ## - 
_USBD_CalculateUsbBandwidth@12=$000DEA0A;USBD.CalculateUsbBandwidth // ## UNPATCHED ## - 
_USBD_DeviceConnected@8=$000DF8E1;USBD.DeviceConnected // ## UNPATCHED ## - 
_USBD_CompleteRequest@4=$000DE9F6;USBD.CompleteRequest // ## UNPATCHED ## - 
_USBD_DeviceDisconnected@8=$000DFC11;USBD.DeviceDisconnected // ## UNPATCHED ## - 
_USBD_Init@8=$000DD250;USBD.Init // ## UNPATCHED ## - 
_USBD_NewHostController@8=$000DD2C9;USBD.NewHostController // ## UNPATCHED ## - 
_USBHUB_AddDevice@4=$000E22F6;USBHUB.AddDevice // ## UNPATCHED ## - 
_USBHUB_Init@4=$000DD948;USBHUB.Init // ## UNPATCHED ## - 
_USBHUB_RemoveDevice@4=$000E1CDF;USBHUB.RemoveDevice // ## UNPATCHED ## - 
_UTF8ToUnicode@16=$0003A6F6;UTF8ToUnicode // ## UNPATCHED ## - 
_WaitForMultipleObjects@16=$0003A478;WaitForMultipleObjects // ## UNPATCHED ## - 
_WaitForMultipleObjectsEx@20=$0003A394;WaitForMultipleObjectsEx // ## UNPATCHED ## - 
_WaitForSingleObjectEx@12=$0003A350;WaitForSingleObjectEx // ## UNPATCHED ## - 
_WideCharToMultiByte@32=$0003A9BF;WideCharToMultiByte // ## UNPATCHED ## - 
_WriteFile@20=$0003B45B;WriteFile // ## UNPATCHED ## - 
_wsprintfW=$0003B35B;wsprintfW // ## UNPATCHED ## - 
_XapiApplyKernelPatches@0=$0003FA81;XapiApplyKernelPatches // ## UNPATCHED ## - 
_XapiAutoPowerDownTimeout@16=$0003FC51;XapiAutoPowerDownTimeout // ## UNPATCHED ## - 
_XapiCallThreadNotifyRoutines@4=$0003A4BE;XapiCallThreadNotifyRoutines // ## UNPATCHED ## - 
_XapiComputeContentHeaderSignature@16=$0005FA92;XapiComputeContentHeaderSignature // ## UNPATCHED ## - 
_XapiDirectoryInformationToFindData@8=$0005F7D7;XapiDirectoryInformationToFindData // ## UNPATCHED ## - 
_XapiFormatObjectAttributes@12=$0003C6B6;XapiFormatObjectAttributes // ## UNPATCHED ## - 
_XapiFormatTimeOut@8=$0003C6DE;XapiFormatTimeOut // ## UNPATCHED ## - 
_XapiInitAutoPowerDown@0=$0003FC63;XapiInitAutoPowerDown // ## UNPATCHED ## - 
_XapiLoadContentMetadataHeader@16=$0005FB6A;XapiLoadContentMetadataHeader // ## UNPATCHED ## - 
_XapipGetTimeZoneBias@4=$0003B2BD;XapipGetTimeZoneBias // ## UNPATCHED ## - 
_XapipQueryTimeZoneInformation@8=$0003AD2A;XapipQueryTimeZoneInformation // ## UNPATCHED ## - 
_XapiRestrictCodeSelectorLimit@0=$0003FA1D;XapiRestrictCodeSelectorLimit // ## UNPATCHED ## - 
_XapiSetLastNTError@4=$0003C3DF;XapiSetLastNTError // ## UNPATCHED ## - 
_XapiShutdownChannelStartNextPacket@0=$0003FCD7;XapiShutdownChannelStartNextPacket // ## UNPATCHED ## - 
_XapiShutdownNotification@4=$0003FCF3;XapiShutdownNotification // ## UNPATCHED ## - 
_XapiThreadStartup@8=$0003A5E3;XapiThreadStartup // ## UNPATCHED ## - 
_XapiVerifyXControlData@4=$0003F403;XapiVerifyXControlData // ## UNPATCHED ## - 
_XAudioCalculatePitch@4=$00080883;XAudioCalculatePitch // ## UNPATCHED ## - 
_XAutoPowerDownResetTimer@0=$0003FC36;XAutoPowerDownResetTimer // ## UNPATCHED ## - 
_XboxTimeZoneDateToSystemTime@8=$0003ACF2;XboxTimeZoneDateToSystemTime // ## UNPATCHED ## - 
_XboxTimeZoneNameToWstr@8=$0003ACD1;XboxTimeZoneNameToWstr // ## UNPATCHED ## - 
_xCompareStringW@20=$0003FD49;xCompareStringW // ## UNPATCHED ## - 
_XComputeContentSignatureKey@8=$0005FA73;XComputeContentSignatureKey // ## UNPATCHED ## - 
_XConfigChecksum@8=$000CB9ED;XConfigChecksum // ## UNPATCHED ## - 
_XdReportDeviceInsertionRemoval@12=$000DE00E;XdReportDeviceInsertionRemoval // ## UNPATCHED ## - 
_XLoadSectionA@4=$0003FBEC;XLoadSectionA // ## UNPATCHED ## - 
_XFreeSectionByHandle@4=$0003FBCE;XFreeSectionByHandle // ## UNPATCHED ## - 
_XGetAudioFlags@0=$0005F795;XGetAudioFlags // ## UNPATCHED ## - 
_XGetDeviceChanges@12=$000DE093;XGetDeviceChanges // ## UNPATCHED ## - 
_XGetDevices@4=$000DE071;XGetDevices // ## UNPATCHED ## - 
_XGetGameRegion@0=$0003ACA9;XGetGameRegion // ## UNPATCHED ## - 
_XGetLanguage@0=$0003C45B;XGetLanguage // ## UNPATCHED ## - 
_XGetParentalControlSetting@0=$0003FC11;XGetParentalControlSetting // ## UNPATCHED ## - 
_XGetSectionHandleA@4=$0003FB46;XGetSectionHandleA // ## UNPATCHED ## - 
_XGetVideoFlags@0=$00039F13;XGetVideoFlags // ## UNPATCHED ## - 
_XGetVideoStandard@0=$00039F5C;XGetVideoStandard // ## UNPATCHED ## - 
_XID_AddDevice@4=$000E54FF;XID.AddDevice // ## UNPATCHED ## - 
_XID_Init@4=$000DDE01;XID.Init // ## UNPATCHED ## - 
_XID_RemoveDevice@4=$000E502F;XID.RemoveDevice // ## UNPATCHED ## - 
_XInputGetCapabilities@8=$000E4839;XInputGetCapabilities // ## UNPATCHED ## - 
_XInputGetState@8=$000E4A17;XInputGetState // ## UNPATCHED ## - 
_XInputOpen@16=$000E47D7;XInputOpen // ## UNPATCHED ## - 
_XLoadSectionByHandle@4=$0003FBAD;XLoadSectionByHandle // ## UNPATCHED ## - 
_XMemAlloc@8=$0005F9EA;XMemAlloc // ## UNPATCHED ## - 
_XMemFree@8=$0005FA59;XMemFree // ## UNPATCHED ## - 
_XNetConfigUPnP@4=$000CBD18;XNetConfigUPnP // ## UNPATCHED ## - 
_XNetDnsLookup@12=$000CB4D1;XNetDnsLookup // -- Patched -- 
_XNetXnAddrToInAddr@12=$000CB5CF;XNetXnAddrToInAddr // ## UNPATCHED ## - 
_XNetGetEthernetLinkStatus@0=$0005F4A5;XNetGetEthernetLinkStatus // ## UNPATCHED ## - 
_XNetLoadConfigParams@4=$000CBC14;XNetLoadConfigParams // -- Patched -- 
_XNetLoadConfigSector@16=$000CBA17;XNetLoadConfigSector // ## UNPATCHED ## - 
_XNetOpenConfigVolume@0=$000CB90B;XNetOpenConfigVolume // ## UNPATCHED ## - 
_XNetQosLookup@48=$000CB4F3;XNetQosLookup // ## UNPATCHED ## - 
_XNetSaveConfigParams@4=$000CBB6D;XNetSaveConfigParams // -- Patched -- 
_XNetSaveConfigSector@16=$000CBACA;XNetSaveConfigSector // ## UNPATCHED ## - 
_XNetUpdateConfigParams@8=$000CBCAE;XNetUpdateConfigParams // ## UNPATCHED ## - 
_XOnlineNotificationSetState@24=$000B135C;XOnlineNotificationSetState // ## UNPATCHED ## - 
_XPeekDevices@12=$000DE030;XPeekDevices // ## UNPATCHED ## - 
_XPhysicalAlloc@16=$0005F9A1;XPhysicalAlloc // ## UNPATCHED ## - 
_XQueryValue@20=$00039F85;XQueryValue // ## UNPATCHED ## - 
_XReadMUMetaData@20=$000DE7EA;XReadMUMetaData // ## UNPATCHED ## - 
_XRegisterThreadNotifyRoutine@8=$0003A55E;XRegisterThreadNotifyRoutine // ## UNPATCHED ## - 
_XShaHmacComputeFinal@16=$0005FCAD;XShaHmacComputeFinal // ## UNPATCHED ## - 
_XShaHmacInitialize@12=$0005FC46;XShaHmacInitialize // ## UNPATCHED ## - 
_XUnmountAlternateTitleA@4=$0003C251;XUnmountAlternateTitleA // ## UNPATCHED ## - 
_XWriteTitleInfoAndRebootA@20=$0003A0B5;XWriteTitleInfoAndRebootA // ## UNPATCHED ## - 
_XWriteTitleInfoNoReboot@24=$00039FD4;XWriteTitleInfoNoReboot // ## UNPATCHED ## - 
__imp__HalRegisterShutdownNotification@8=$00012154;.imp..HalRegisterShutdownNotification // ## UNPATCHED ## - 
_XapiProcessHeap=$0011CA7C;XapiProcessHeap // ## UNPATCHED ## - 
_D3D__pDevice=$00075AE8;D3D..pDevice // ## UNPATCHED ## - 
_D3D__RenderState=$00075850;D3D..RenderState // -- Patched -- 
?m_PushSegmentSize@CDevice@D3D@@2KA=$00077E3C;UNKNOWN // ## UNPATCHED ## - 
?g_PassthruProgramSpecularFog@D3D@@3QBKB=$00073C20;UNKNOWN // ## UNPATCHED ## - 
?g_PassthruProgramZFog@D3D@@3QBKB=$00073B70;UNKNOWN // ## UNPATCHED ## - 
?g_PassthruProgramWFog@D3D@@3QBKB=$00073AB0;UNKNOWN // ## UNPATCHED ## - 
__real@3f800000=$00013CC4;.real // ## UNPATCHED ## - 
__real@00000000=$00013DF4;.real // ## UNPATCHED ## - 
__real@3f000000=$00013DE0;.real // ## UNPATCHED ## - 
__real@bf000000=$000165C4;.real // ## UNPATCHED ## - 
__real@4f800000=$000165B4;.real // ## UNPATCHED ## - 
_D3D__DirtyFlags=$00075648;D3D..DirtyFlags // ## UNPATCHED ## - 
__real@3e800000=$0001D4B0;.real // ## UNPATCHED ## - 
_D3DSIMPLERENDERSTATEENCODE=$00012368;D3DSIMPLERENDERSTATEENCODE // ## UNPATCHED ## - 
_D3DDIRTYFROMRENDERSTATE=$000122B8;D3DDIRTYFROMRENDERSTATE // ## UNPATCHED ## - 
?g_ComplexRenderStateFunctionTable@D3D@@3QBQ6GXK@ZB=$000737F8;UNKNOWN // ## UNPATCHED ## - 
_D3D__Device=$00075AF0;D3D..Device // ## UNPATCHED ## - 
__real@41000000=$0001F030;.real // ## UNPATCHED ## - 
?CommonSetDebugRegisters@D3D@@YIXXZ=$00066530;D3D.mmonSetDebugRegisters volatile  // -- Patched -- 
?MU_DriverExtension@@3UMU_DRIVER_EXTENSION@@A=$00118308;__int8 // ## UNPATCHED ## - 
__imp__KeRaiseIrqlToDpcLevel@0=$00012040;.imp..KeRaiseIrqlToDpcLevel // ## UNPATCHED ## - 
__imp_@KfLowerIrql@4=$0001203C;.imp. // ## UNPATCHED ## - 
__imp__KeInitializeDpc@12=$000120E0;.imp..KeInitializeDpc // ## UNPATCHED ## - 
__imp__KeInitializeTimerEx@8=$000120DC;.imp..KeInitializeTimerEx // ## UNPATCHED ## - 
_sprintf=$00040D1A;sprintf // ## UNPATCHED ## - 
?m_PushBufferSize@CDevice@D3D@@2KA=$00077E40;UNKNOWN // ## UNPATCHED ## - 
__imp__KeWaitForSingleObject@20=$000120D8;.imp..KeWaitForSingleObject // ## UNPATCHED ## - 
__imp__KeSetEvent@12=$000120D4;.imp..KeSetEvent // ## UNPATCHED ## - 
__imp__MmLockUnlockBufferPages@12=$00012188;.imp..MmLockUnlockBufferPages // ## UNPATCHED ## - 
?g_DeviceTree@@3VCDeviceTree@@A=$0011B328;__int8 // ## UNPATCHED ## - 
__imp__MmGetPhysicalAddress@4=$00012184;.imp..MmGetPhysicalAddress // ## UNPATCHED ## - 
_OHCD_GlobalPool=$0011C960;OHCD.GlobalPool // -- Patched -- 
__imp__KeDelayExecutionThread@12=$00012068;.imp..KeDelayExecutionThread // ## UNPATCHED ## - 
_D3D__TextureState=$00075650;D3D..TextureState // ## UNPATCHED ## - 
?g_TextureFormat@D3D@@3QBEB=$00073780;UNKNOWN // ## UNPATCHED ## - 
__imp__AvGetSavedDataAddress@0=$0001219C;.imp..AvGetSavedDataAddress // -- Patched -- 
$T15347=$00017F88;$T15347 // ## UNPATCHED ## - 
__imp__RtlEnterCriticalSection@4=$00012070;.imp..RtlEnterCriticalSection // ## UNPATCHED ## - 
@RtlFindFirstSetRightMember@4=$0003C840;RtlFindFirstSetRightMember // ## UNPATCHED ## - 
__imp__NtAllocateVirtualMemory@20=$00012130;.imp..NtAllocateVirtualMemory // ## UNPATCHED ## - 
__imp__RtlLeaveCriticalSection@4=$0001206C;.imp..RtlLeaveCriticalSection // ## UNPATCHED ## - 
__imp__RtlRaiseException@4=$0001207C;.imp..RtlRaiseException // ## UNPATCHED ## - 
__imp__NtFreeVirtualMemory@12=$0001212C;.imp..NtFreeVirtualMemory // ## UNPATCHED ## - 
?g_UnitsOfElement@D3D@@3QBEB=$00073A70;UNKNOWN // ## UNPATCHED ## - 
__imp__RtlCompareMemoryUlong@12=$00012134;.imp..RtlCompareMemoryUlong // ## UNPATCHED ## - 
?g_BytesPerUnit@D3D@@3QBEB=$00073A78;UNKNOWN // ## UNPATCHED ## - 
__imp__AvSetSavedDataAddress@4=$000121B0;.imp..AvSetSavedDataAddress // ## UNPATCHED ## - 
__imp__MmFreeContiguousMemory@4=$0001201C;.imp..MmFreeContiguousMemory // -- Patched -- 
__imp__AvSetDisplayMode@24=$000121AC;.imp..AvSetDisplayMode // ## UNPATCHED ## - 
?g_SoftDisplayFilterSet@D3D@@3HA=$00077B3C;UNKNOWN // ## UNPATCHED ## - 
?g_FlickerFilterSet@D3D@@3HA=$00077B40;__int16 // ## UNPATCHED ## - 
__imp__MmQueryAllocationSize@4=$000121A8;.imp..MmQueryAllocationSize // -- Patched -- 
__imp__MmAllocateContiguousMemoryEx@20=$000121A4;.imp..MmAllocateContiguousMemoryEx // ## UNPATCHED ## - 
__imp__MmPersistContiguousMemory@12=$0001202C;.imp..MmPersistContiguousMemory // ## UNPATCHED ## - 
?ComputeGap@D3D@@YIKPAVCDevice@1@PAUFence@1@@Z=$0006C030;D3D.mputeGap volatile  // -- Patched -- 
?FlushWCCache@D3D@@YGXXZ=$0006C1C0;D3D.shWCCache // ## UNPATCHED ## - 
_XboxHardwareInfo=$00012000;XboxHardwareInfo // ## UNPATCHED ## - 
?g_FvfVertexShader@D3D@@3UVertexShader@1@A=$00077D20;__int16 // ## UNPATCHED ## - 
?g_TextureCount@D3D@@3QBKB=$00073CE0;UNKNOWN // ## UNPATCHED ## - 
?ShadowVertexShaderState@D3D@@YGXPAUVertexShader@1@K@Z=$00069C70;D3D.GXPAUVertexShader volatile  // ## UNPATCHED ## - 
?g_VertexShaderConstants@@3PAY03MA=$00074A30;UNKNOWN // ## UNPATCHED ## - 
?g_SlotMapping@D3D@@3PAEA=$00115F68;UNKNOWN // ## UNPATCHED ## - 
_D3DDIRTYFROMTEXTURESTATE=$00012260;D3DDIRTYFROMTEXTURESTATE // ## UNPATCHED ## - 
?g_TransformDirtyTable@D3D@@3QBKB=$000738F0;UNKNOWN // ## UNPATCHED ## - 
?g_Stream@D3D@@3PAUStream@1@A=$00077B48;UNKNOWN // ## UNPATCHED ## - 
$T15448=$00017F98;$T15448 // ## UNPATCHED ## - 
_g_pPrivateData=$00077E38;g.pPrivateData // ## UNPATCHED ## - 
_D3D__IndexData=$00075644;D3D..IndexData // ## UNPATCHED ## - 
?g_DefaultViewport@D3D@@3U_D3DVIEWPORT8@@B=$000737C8;__int8 // ## UNPATCHED ## - 
?CommonSetRenderTarget@D3D@@YGXPAUD3DSurface@@0PBU_D3DVIEWPORT8@@@Z=$00066600;D3D.mmonSetRenderTarget volatile  // -- Patched -- 
__0_47=$00115F88;.0.47 // ## UNPATCHED ## - 
__1_47=$00115F8C;.1.47 // ## UNPATCHED ## - 
__real@40400000=$0001E774;.real // ## UNPATCHED ## - 
__finite=$000608E2;.finite // ## UNPATCHED ## - 
_qsort=$00041310;qsort // ## UNPATCHED ## - 
__alloca_probe=$00040F60;.alloca.probe // ## UNPATCHED ## - 
__vsnprintf=$00041872;.vsnprintf // ## UNPATCHED ## - 
_DbgPrint=$00062A92;DbgPrint // ## UNPATCHED ## - 
?g_VideoOffset@D3D@@3KA=$00077E44;UNKNOWN // ## UNPATCHED ## - 
__imp__KeInsertQueueDpc@12=$0001218C;.imp..KeInsertQueueDpc // ## UNPATCHED ## - 
__real@40000000=$000143B8;.real // ## UNPATCHED ## - 
?g_TilePitches@D3D@@3QBKB=$00073888;UNKNOWN // ## UNPATCHED ## - 
__real@b727c5ac=$0001F060;.real // ## UNPATCHED ## - 
__real@3727c5ac=$0001F05C;.real // ## UNPATCHED ## - 
__imp__HalGetInterruptVector@8=$0001215C;.imp..HalGetInterruptVector // ## UNPATCHED ## - 
__imp__KeInitializeInterrupt@28=$00012168;.imp..KeInitializeInterrupt // ## UNPATCHED ## - 
__imp__KeConnectInterrupt@4=$00012164;.imp..KeConnectInterrupt // ## UNPATCHED ## - 
__imp__AvSendTVEncoderOption@16=$000121A0;.imp..AvSendTVEncoderOption // ## UNPATCHED ## - 
__imp__HalReadWritePCISpace@24=$000121B4;.imp..HalReadWritePCISpace // ## UNPATCHED ## - 
_D3D__AvInfo=$00075638;D3D..AvInfo // ## UNPATCHED ## - 
__imp__KeDisconnectInterrupt@4=$000121B8;.imp..KeDisconnectInterrupt // ## UNPATCHED ## - 
__imp__MmClaimGpuInstanceMemory@8=$000121C0;.imp..MmClaimGpuInstanceMemory // ## UNPATCHED ## - 
?g_AntiAliasedRenderStates@D3D@@3QBKB=$00073970;UNKNOWN // ## UNPATCHED ## - 
_MAX_FOG_SCALE=$00074940;MAX.FOG.SCALE // ## UNPATCHED ## - 
?g_AntiAliasedTextureStates@D3D@@3QBKB=$00073918;UNKNOWN // ## UNPATCHED ## - 
__real@bdb8aa0a=$0001F058;.real // ## UNPATCHED ## - 
__real@be596d0b=$0001F054;.real // ## UNPATCHED ## - 
?g_DisplayModes@D3D@@3QBUDISPLAYMODE@1@B=$00073FE8;__int8 // ## UNPATCHED ## - 
?g_PassthruProgramPositionAndTexture@D3D@@3QBKB=$00073A10;UNKNOWN // ## UNPATCHED ## - 
?FreeFrameBuffers@CDevice@D3D@@QAEXXZ=$0006B150;D3D.CDevice.eFrameBuffers // ## UNPATCHED ## - 
?UninitializePushBuffer@CDevice@D3D@@QAEXXZ=$0006C010;unsigned char * const // ## UNPATCHED ## - 
_LOG_64F=$00073EDC;LOG.64F // ## UNPATCHED ## - 
_INV_LOG_2F=$00073EE0;INV.LOG.2F // ## UNPATCHED ## - 
?g_Lar@D3D@@3QBMB=$00073F68;__int128 // ## UNPATCHED ## - 
?g_Mar@D3D@@3QBMB=$00073EE8;unsigned __int128 // ## UNPATCHED ## - 
_FLOAT_64=$0007493C;FLOAT.64 // ## UNPATCHED ## - 
__real@43800000=$0001F050;.real // ## UNPATCHED ## - 
?g_MinFilter@D3D@@3QAY02$$CBKA=$00073CF0;unsigned __int128 // ## UNPATCHED ## - 
@OHCD_ScheduleRemoveEndpointControlOrBulk@8=$000E2615;OHCD.ScheduleRemoveEndpointControlOrBulk // ## UNPATCHED ## - 
@OHCD_ScheduleRemoveEndpointPeriodic@8=$000E28CE;OHCD.ScheduleRemoveEndpointPeriodic // ## UNPATCHED ## - 
_$E1=$00086C12;$E1 // -- Patched -- 
_$E3=$00086C1D;$E3 // -- Patched -- 
__cinit@0=$0003F99C;.cinit // ## UNPATCHED ## - 
__rtinit@0=$0003F9F4;.rtinit // ## UNPATCHED ## - 
_ResetEvent@4=$0003A2BA;ResetEvent // ## UNPATCHED ## - 
_CompareFileTime@8=$0003AF20;CompareFileTime // ## UNPATCHED ## - 
_CreateEventA@16=$0003A239;CreateEventA // ## UNPATCHED ## - 
_CreateFileA@28=$0003B97B;CreateFileA // ## UNPATCHED ## - 
_CreateMutexA@12=$0003A2D8;CreateMutexA // ## UNPATCHED ## - 
_CreateThread@24=$0003A67B;CreateThread // ## UNPATCHED ## - 
_D3D_AllocContiguousMemory@8=$0006AE60;D3D.AllocContiguousMemory // ## UNPATCHED ## - 
_D3DDevice_Begin@4=$00069AB0;D3DDevice.Begin // ## UNPATCHED ## - 
_D3DDevice_BeginStateBig@4=$0006C6C0;D3DDevice.BeginStateBig // -- Patched -- 
_D3DDevice_CopyRects@20=$000674D0;D3DDevice.CopyRects // ## UNPATCHED ## - 
_D3DDevice_CreateIndexBuffer2@4=$00069090;D3DDevice.CreateIndexBuffer2 // ## UNPATCHED ## - 
_D3DDevice_CreateVertexBuffer2@4=$000690D0;D3DDevice.CreateVertexBuffer2 // ## UNPATCHED ## - 
_D3DDevice_CreateVertexShader@16=$0006A030;D3DDevice.CreateVertexShader // ## UNPATCHED ## - 
_D3DDevice_DrawIndexedVertices@12=$00069810;D3DDevice.DrawIndexedVertices // -- Patched -- 
_D3DDevice_DrawVertices@12=$00069770;D3DDevice.DrawVertices // ## UNPATCHED ## - 
_D3DDevice_DrawVerticesUP@16=$00069610;D3DDevice.DrawVerticesUP // -- Patched -- 
_D3DDevice_End@0=$00069AF0;D3DDevice.End // -- Patched -- 
_D3DDevice_GetDirect3D@4=$00067040;D3DDevice.GetDirect3D // -- Patched -- 
_D3D_FreeContiguousMemory@4=$0006AE80;D3D.FreeContiguousMemory // ## UNPATCHED ## - 
_D3DDevice_GetTransform@8=$00067180;D3DDevice.GetTransform // ## UNPATCHED ## - 
_D3DDevice_GetViewportOffsetAndScale@8=$00065770;D3DDevice.GetViewportOffsetAndScale // ## UNPATCHED ## - 
_D3DDevice_LoadVertexShader@8=$0006A310;D3DDevice.LoadVertexShader // ## UNPATCHED ## - 
_D3DDevice_PersistDisplay@0=$00068070;D3DDevice.PersistDisplay // ## UNPATCHED ## - 
_D3DDevice_SelectVertexShader@8=$0006A370;D3DDevice.SelectVertexShader // ## UNPATCHED ## - 
_D3DDevice_SetIndices@8=$00067D10;D3DDevice.SetIndices // ## UNPATCHED ## - 
_D3DDevice_SetMaterial@4=$000671B0;D3DDevice.SetMaterial // ## UNPATCHED ## - 
_D3DDevice_SetPixelShader@4=$00070E00;D3DDevice.SetPixelShader // ## UNPATCHED ## - 
_D3DDevice_SetRenderState_BackFillMode@4=$00065E80;D3DDevice.SetRenderState.BackFillMode // ## UNPATCHED ## - 
_D3DDevice_SetRenderState_RopZCmpAlwaysRead@4=$00066E40;D3DDevice.SetRenderState.RopZCmpAlwaysRead // -- Patched -- 
_D3DDevice_SetRenderState_CullMode@4=$00065B10;D3DDevice.SetRenderState.CullMode // ## UNPATCHED ## - 
_D3DDevice_SetRenderState_DoNotCullUncompressed@4=$00066E80;D3DDevice.SetRenderState.DoNotCullUncompressed // ## UNPATCHED ## - 
_D3DDevice_SetRenderState_RopZRead@4=$00066E60;D3DDevice.SetRenderState.RopZRead // ## UNPATCHED ## - 
_D3DDevice_SetRenderState_EdgeAntiAlias@4=$00065A40;D3DDevice.SetRenderState.EdgeAntiAlias // ## UNPATCHED ## - 
_D3DDevice_SetRenderState_MultiSampleAntiAlias@4=$00066F20;D3DDevice.SetRenderState.MultiSampleAntiAlias // ## UNPATCHED ## - 
_D3DDevice_SetRenderState_FillMode@4=$00065E30;D3DDevice.SetRenderState.FillMode // ## UNPATCHED ## - 
_D3DDevice_SetRenderState_FogColor@4=$00065AC0;D3DDevice.SetRenderState.FogColor // ## UNPATCHED ## - 
_D3DDevice_SetRenderState_FrontFace@4=$00065B80;D3DDevice.SetRenderState.FrontFace // ## UNPATCHED ## - 
_D3DDevice_SetRenderState_LogicOp@4=$00065DD0;D3DDevice.SetRenderState.LogicOp // ## UNPATCHED ## - 
_D3DDevice_SetRenderState_MultiSampleMask@4=$00066FA0;D3DDevice.SetRenderState.MultiSampleMask // ## UNPATCHED ## - 
_D3DDevice_SetRenderState_NormalizeNormals@4=$00065BC0;D3DDevice.SetRenderState.NormalizeNormals // ## UNPATCHED ## - 
_D3DDevice_SetRenderState_OcclusionCullEnable@4=$00066D60;D3DDevice.SetRenderState.OcclusionCullEnable // -- Patched -- 
_D3DDevice_SetRenderState_StencilCullEnable@4=$00066DD0;D3DDevice.SetRenderState.StencilCullEnable // ## UNPATCHED ## - 
_D3DDevice_SetRenderState_PSTextureModes@4=$000656B0;D3DDevice.SetRenderState.PSTextureModes // ## UNPATCHED ## - 
_D3DDevice_SetRenderState_SampleAlpha@4=$00066FF0;D3DDevice.SetRenderState.SampleAlpha // ## UNPATCHED ## - 
_D3DDevice_SetRenderState_StencilEnable@4=$00066C30;D3DDevice.SetRenderState.StencilEnable // -- Patched -- 
_D3DDevice_SetRenderState_ShadowFunc@4=$00065A80;D3DDevice.SetRenderState.ShadowFunc // ## UNPATCHED ## - 
_D3DDevice_SetRenderState_StencilFail@4=$00066CC0;D3DDevice.SetRenderState.StencilFail // ## UNPATCHED ## - 
_D3DDevice_SetRenderState_TextureFactor@4=$00065C00;D3DDevice.SetRenderState.TextureFactor // ## UNPATCHED ## - 
_D3DDevice_SetRenderState_VertexBlend@4=$00065F50;D3DDevice.SetRenderState.VertexBlend // ## UNPATCHED ## - 
_D3DDevice_SetRenderStateNotInline@8=$00065710;D3DDevice.SetRenderStateNotInline // ## UNPATCHED ## - 
_D3DDevice_SetRenderState_YuvEnable@4=$00066D30;D3DDevice.SetRenderState.YuvEnable // ## UNPATCHED ## - 
_D3DDevice_SetRenderState_ZBias@4=$00065D50;D3DDevice.SetRenderState.ZBias // ## UNPATCHED ## - 
_D3DDevice_SetRenderTarget@8=$00067050;D3DDevice.SetRenderTarget // -- Patched -- 
_D3DDevice_SetShaderConstantMode@4=$0006A3F0;D3DDevice.SetShaderConstantMode // -- Patched -- 
_D3DDevice_SetStreamSource@12=$0006A280;D3DDevice.SetStreamSource // ## UNPATCHED ## - 
_D3DDevice_SetTextureStageStateNotInline@12=$000661A0;D3DDevice.SetTextureStageStateNotInline // ## UNPATCHED ## - 
_D3DDevice_SetTextureState_BorderColor@8=$00066120;D3DDevice.SetTextureState.BorderColor // ## UNPATCHED ## - 
_D3DDevice_SetTextureState_BumpEnv@12=$000660B0;D3DDevice.SetTextureState.BumpEnv // ## UNPATCHED ## - 
_D3DDevice_SetTextureState_ColorKeyColor@8=$00066160;D3DDevice.SetTextureState.ColorKeyColor // ## UNPATCHED ## - 
_D3DDevice_SetTextureState_TexCoordIndex@8=$00065FA0;D3DDevice.SetTextureState.TexCoordIndex // ## UNPATCHED ## - 
_D3DDevice_SetTransform@8=$00067070;D3DDevice.SetTransform // ## UNPATCHED ## - 
_D3DDevice_SetVertexData2f@12=$00069A70;D3DDevice.SetVertexData2f // ## UNPATCHED ## - 
_D3DDevice_SetVertexShader@4=$0006A640;D3DDevice.SetVertexShader // ## UNPATCHED ## - 
_D3DPalette_GetSize@4=$00069190;D3DPalette.GetSize // -- Patched -- 
_D3DPalette_Lock2@8=$00069170;D3DPalette.Lock2 // ## UNPATCHED ## - 
_D3DResource_AddRef@4=$0006A910;D3DResource.AddRef // -- Patched -- 
_D3DResource_GetType@4=$0006A9A0;D3DResource.GetType // -- Patched -- 
_D3DResource_Register@8=$0006AA30;D3DResource.Register // ## UNPATCHED ## - 
_D3DResource_Release@4=$0006A950;D3DResource.Release // -- Patched -- 
_D3DSurface_GetDesc@8=$0006AC30;D3DSurface.GetDesc // -- Patched -- 
_D3DSurface_LockRect@16=$0006AC50;D3DSurface.LockRect // ## UNPATCHED ## - 
_D3DVertexBuffer_Lock2@8=$00069120;D3DVertexBuffer.Lock2 // ## UNPATCHED ## - 
_wvsprintfW@12=$0003B344;wvsprintfW // ## UNPATCHED ## - 
_D3DXComputeBoundingBox@20=$0007A73F;D3DXComputeBoundingBox // ## UNPATCHED ## - 
_D3DXCreateBuffer@8=$0007A856;D3DXCreateBuffer // ## UNPATCHED ## - 
_D3DXCreateMeshFVF@24=$0007F4CC;D3DXCreateMeshFVF // ## UNPATCHED ## - 
_D3DXDeclaratorFromFVF@8=$0007A8AE;D3DXDeclaratorFromFVF // ## UNPATCHED ## - 
_D3DXFVFFromDeclarator@8=$00078FE5;D3DXFVFFromDeclarator // ## UNPATCHED ## - 
_D3DXMatrixInverse@12=$00077F99;D3DXMatrixInverse // ## UNPATCHED ## - 
_D3DXMatrixLookAtRH@16=$00078DA5;D3DXMatrixLookAtRH // ## UNPATCHED ## - 
_D3DXMatrixMultiply@12=$00078A8A;D3DXMatrixMultiply // ## UNPATCHED ## - 
_D3DXMatrixOrthoLH@20=$000785B7;D3DXMatrixOrthoLH // ## UNPATCHED ## - 
_D3DXMatrixRotationQuaternion@8=$000784D5;D3DXMatrixRotationQuaternion // ## UNPATCHED ## - 
_D3DXMatrixRotationZ@8=$00078459;D3DXMatrixRotationZ // ## UNPATCHED ## - 
_D3DXMatrixRotationY@8=$000783DE;D3DXMatrixRotationY // ## UNPATCHED ## - 
_D3DXMatrixRotationYawPitchRoll@16=$00078B6D;D3DXMatrixRotationYawPitchRoll // ## UNPATCHED ## - 
_D3DXMatrixScaling@16=$00078326;D3DXMatrixScaling // ## UNPATCHED ## - 
_D3DXMatrixTransformation@28=$00078BA6;D3DXMatrixTransformation // ## UNPATCHED ## - 
_D3DXMatrixTranslation@16=$00078382;D3DXMatrixTranslation // ## UNPATCHED ## - 
_D3DXMatrixTranspose@8=$00077F2C;D3DXMatrixTranspose // ## UNPATCHED ## - 
_D3DXQuaternionInverse@8=$00078E9F;D3DXQuaternionInverse // ## UNPATCHED ## - 
_D3DXQuaternionNormalize@8=$00078A08;D3DXQuaternionNormalize // ## UNPATCHED ## - 
_D3DXQuaternionRotationYawPitchRoll@16=$0007862B;D3DXQuaternionRotationYawPitchRoll // ## UNPATCHED ## - 
_D3DXQuaternionSlerp@16=$00078F0B;D3DXQuaternionSlerp // ## UNPATCHED ## - 
_D3DXVec3Normalize@8=$000788D7;D3DXVec3Normalize // ## UNPATCHED ## - 
_D3DXVec3TransformCoord@12=$00078953;D3DXVec3TransformCoord // ## UNPATCHED ## - 
_D3DXVec3TransformNormal@12=$00077ECD;D3DXVec3TransformNormal // ## UNPATCHED ## - 
_DeviceIoControl@32=$0003B842;DeviceIoControl // ## UNPATCHED ## - 
_Direct3DCreate8@4=$00069080;Direct3DCreate8 // ## UNPATCHED ## - 
_DirectSoundCreate@12=$00082151;DirectSoundCreate // ## UNPATCHED ## - 
_DirectSoundCreateStream@8=$00082198;DirectSoundCreateStream // ## UNPATCHED ## - 
_DirectSoundDoWork@0=$00081540;DirectSoundDoWork // ## UNPATCHED ## - 
_FileTimeToLocalFileTime@8=$0003B313;FileTimeToLocalFileTime // ## UNPATCHED ## - 
_FileTimeToSystemTime@8=$0003AE40;FileTimeToSystemTime // ## UNPATCHED ## - 
_FindNextFileA@8=$0005F950;FindNextFileA // ## UNPATCHED ## - 
_FlushFileBuffers@4=$0003B7DD;FlushFileBuffers // ## UNPATCHED ## - 
_GetCurrentThreadId@0=$0003A6E9;GetCurrentThreadId // ## UNPATCHED ## - 
_GetFileAttributesExA@12=$0003AB2D;GetFileAttributesExA // ## UNPATCHED ## - 
_GetFileSize@8=$0003B940;GetFileSize // ## UNPATCHED ## - 
_GetFileSizeEx@8=$0003B804;GetFileSizeEx // ## UNPATCHED ## - 
_GetFileTime@16=$0003B777;GetFileTime // ## UNPATCHED ## - 
_GetLastError@0=$0003C389;GetLastError // ## UNPATCHED ## - 
_GetOverlappedResult@16=$0003C3F6;GetOverlappedResult // ## UNPATCHED ## - 
_GetSystemTime@4=$0003ADD4;GetSystemTime // ## UNPATCHED ## - 
_GetTickCount@0=$0003AE38;GetTickCount // ## UNPATCHED ## - 
_XGetAVPack@0=$00039FA7;XGetAVPack // -- Patched -- 
_GetTimeZoneInformation@4=$0003B161;GetTimeZoneInformation // ## UNPATCHED ## - 
_GlobalAlloc@8=$0003C7C6;GlobalAlloc // ## UNPATCHED ## - 
_LocalReAlloc@12=$0003C7E3;LocalReAlloc // ## UNPATCHED ## - 
_HCD_CancelRequest@8=$000E146C;HCD.CancelRequest // ## UNPATCHED ## - 
_HCD_DisableRootHubPort@8=$000E24B4;HCD.DisableRootHubPort // ## UNPATCHED ## - 
_HCD_EnumHardware@0=$000DD78B;HCD.EnumHardware // ## UNPATCHED ## - 
_HCD_NewHostController@12=$000DD7CD;HCD.NewHostController // ## UNPATCHED ## - 
_HCD_ResetRootHubPort@16=$000E2467;HCD.ResetRootHubPort // ## UNPATCHED ## - 
_HCD_SubmitRequest@8=$000E15DD;HCD.SubmitRequest // ## UNPATCHED ## - 
_HeapCreate@12=$0003C73E;HeapCreate // ## UNPATCHED ## - 
_HeapDestroy@4=$0003C78D;HeapDestroy // ## UNPATCHED ## - 
_HeapFree@12=$0003C7A9;HeapFree // ## UNPATCHED ## - 
_IDirectSound_CreateSoundBuffer@16=$00081F87;IDirectSound.CreateSoundBuffer // ## UNPATCHED ## - 
_IDirectSound_SetMixBinHeadroom@12=$000813CF;IDirectSound.SetMixBinHeadroom // ## UNPATCHED ## - 
_IDirectSoundBuffer_GetCurrentPosition@12=$00081497;IDirectSoundBuffer.GetCurrentPosition // -- Patched -- 
_IDirectSoundBuffer_SetBufferData@12=$00081C71;IDirectSoundBuffer.SetBufferData // ## UNPATCHED ## - 
_IDirectSoundBuffer_SetNotificationPositions@12=$00081503;IDirectSoundBuffer.SetNotificationPositions // ## UNPATCHED ## - 
_IDirectSoundBuffer_GetStatus@8=$0008147B;IDirectSoundBuffer.GetStatus // -- Patched -- 
_IDirectSoundBuffer_SetCurrentPosition@8=$000814B7;IDirectSoundBuffer.SetCurrentPosition // -- Patched -- 
_IDirectSoundBuffer_SetMixBins@8=$00081407;IDirectSoundBuffer.SetMixBins // -- Patched -- 
_IDirectSoundBuffer_SetPitch@8=$000817E7;IDirectSoundBuffer.SetPitch // ## UNPATCHED ## - 
_IDirectSoundBuffer_SetVolume@8=$00081423;IDirectSoundBuffer.SetVolume // -- Patched -- 
_IDirectSoundBuffer_Lock@32=$000814D3;IDirectSoundBuffer.Lock // ## UNPATCHED ## - 
_IDirectSoundBuffer_Play@16=$0008143F;IDirectSoundBuffer.Play // ## UNPATCHED ## - 
_IDirectSoundBuffer_Release@4=$0008086D;IDirectSoundBuffer.Release // ## UNPATCHED ## - 
_IDirectSoundBuffer_Stop@4=$00081463;IDirectSoundBuffer.Stop // ## UNPATCHED ## - 
_inet_addr@4=$000CC5A5;inet.addr // ## UNPATCHED ## - 
_IsBadReadPtr@8=$0005F4F0;IsBadReadPtr // ## UNPATCHED ## - 
_IsBadWritePtr@8=$0005F555;IsBadWritePtr // ## UNPATCHED ## - 
_LocalFree@4=$0003C80F;LocalFree // -- Patched -- 
_lstrcatA@8=$0003C61E;lstrcatA // ## UNPATCHED ## - 
_lstrcatW@8=$0003F886;lstrcatW // -- Patched -- 
_lstrcpyW@8=$0003F92A;lstrcpyW // ## UNPATCHED ## - 
_lstrcmpW@8=$0003F841;lstrcmpW // ## UNPATCHED ## - 
_lstrcpyA@8=$0003C57B;lstrcpyA // ## UNPATCHED ## - 
_lstrcpynA@12=$0003C5B9;lstrcpynA // ## UNPATCHED ## - 
_lstrcpynW@12=$0003F8BE;lstrcpynW // ## UNPATCHED ## - 
_lstrlenA@4=$0003C678;lstrlenA // ## UNPATCHED ## - 
_lstrlenW@4=$0003F962;lstrlenW // ## UNPATCHED ## - 
_mainCRTStartup=$0003C509;mainCRTStartup // ## UNPATCHED ## - 
_MU_AddDevice@4=$000DE143;MU.AddDevice // ## UNPATCHED ## - 
_MU_CloseDeviceObject@8=$000DE317;MU.CloseDeviceObject // ## UNPATCHED ## - 
_MU_CreateDeviceObject@12=$000DE384;MU.CreateDeviceObject // ## UNPATCHED ## - 
_MU_GetExistingDeviceObject@8=$000DE1D9;MU.GetExistingDeviceObject // ## UNPATCHED ## - 
_MU_RemoveDevice@4=$000DE2E2;MU.RemoveDevice // ## UNPATCHED ## - 
_MU_Init@4=$000DD144;MU.Init // ## UNPATCHED ## - 
_MultiByteToWideChar@24=$0003A904;MultiByteToWideChar // ## UNPATCHED ## - 
_OHCD_DevSysCheckHardware@4=$000DDC8A;OHCD.DevSysCheckHardware // ## UNPATCHED ## - 
_OHCD_DevSysTakeControl@4=$000DDC95;OHCD.DevSysTakeControl // ## UNPATCHED ## - 
_OHCD_InterruptService@8=$000E2A47;OHCD.InterruptService // ## UNPATCHED ## - 
_OHCD_IsochPoolAllocateEndpoint@0=$000E3231;OHCD.IsochPoolAllocateEndpoint // ## UNPATCHED ## - 
_OHCD_PoolAllocateEndpoint@0=$000E1107;OHCD.PoolAllocateEndpoint // ## UNPATCHED ## - 
_OHCD_IsrDpc@16=$000E311B;OHCD.IsrDpc // ## UNPATCHED ## - 
_XOnlineGetUsers@8=$000B1316;XOnlineGetUsers // -- Patched -- 
_XOnlineRetrieveLogonState@16=$000B1346;XOnlineRetrieveLogonState // -- Patched -- 
_XOnlineTaskClose@4=$000B130B;XOnlineTaskClose // ## UNPATCHED ## - 
_XOnlineTaskContinue@4=$000B1300;XOnlineTaskContinue // ## UNPATCHED ## - 
__XOnlineChangeGamerTagResults@8=$000B1515;.XOnlineChangeGamerTagResults // -- Patched -- 
__XOnlineGetCreateOwnerAccountResults@8=$000B148D;.XOnlineGetCreateOwnerAccountResults // -- Patched -- 
__XOnlineGetPaymentInfoResults@8=$000B14A3;.XOnlineGetPaymentInfoResults // -- Patched -- 
__XOnlineGetSerialNumber@4=$000B183E;.XOnlineGetSerialNumber // -- Patched -- 
__XOnlineGetUserFromMU@12=$000B143C;.XOnlineGetUserFromMU // -- Patched -- 
__XOnlineGetUsersFromHD@8=$000B1431;.XOnlineGetUsersFromHD // ## UNPATCHED ## - 
__XOnlineLogonTaskGetStatus@8=$000B141B;.XOnlineLogonTaskGetStatus // -- Patched -- 
__XOnlinePostalCodeLookupGetResults@12=$000B1550;.XOnlinePostalCodeLookupGetResults // ## UNPATCHED ## - 
__XOnlineRemoveUserFromHD@4=$000B145D;.XOnlineRemoveUserFromHD // -- Patched -- 
__XOnlineRestoreAccountResults@8=$000B14FF;.XOnlineRestoreAccountResults // -- Patched -- 
__XOnlineSetUserPINResults@8=$000B14D3;.XOnlineSetUserPINResults // -- Patched -- 
__XOnlineTroubleshootAccountResults@8=$000B1536;.XOnlineTroubleshootAccountResults // -- Patched -- 
__XOnlineVerifyVoucher@16=$000B133B;.XOnlineVerifyVoucher // ## UNPATCHED ## - 
_closesocket@4=$000CB530;closesocket // -- Patched -- 
_connect@12=$000CB56B;connect // -- Patched -- 
_ioctlsocket@12=$000CB546;ioctlsocket // -- Patched -- 
_shutdown@8=$000CB53B;shutdown // -- Patched -- 
_socket@12=$000CB525;socket // -- Patched -- 
?XnLogonGetStatus@CXoBase@@QAEKPAU_SGADDR@@PAK@Z=$000CBD9D;unsigned char * const volatile  // -- Patched -- 
_WSAGetOverlappedResult@20=$000CB585;WSAGetOverlappedResult // -- Patched -- 
_WSARecv@28=$000CB59F;WSARecv // -- Patched -- 
_WSASend@28=$000CB5AE;WSASend // -- Patched -- 
_WSASendTo@36=$000CB5BD;WSASendTo // -- Patched -- 
_XOnlineMessageGet@20=$000B13FD;XOnlineMessageGet // -- Patched -- 
_XOnlineStringGet@28=$000B13EE;XOnlineStringGet // ## UNPATCHED ## - 
__XOnlineReserveName@20=$000B1321;.XOnlineReserveName // ## UNPATCHED ## - 
__XOnlineSetPaymentInfo@20=$000B1468;.XOnlineSetPaymentInfo // -- Patched -- 
__XOnlineSetUserAccountStatus@20=$000B14AE;.XOnlineSetUserAccountStatus // -- Patched -- 
_select@20=$000CB576;select // -- Patched -- 
_sendto@24=$000CB9A7;sendto // ## UNPATCHED ## - 
_setsockopt@20=$000CB551;setsockopt // -- Patched -- 
?XnSha@@YGXPBEI0I0IPAEI@Z=$000D22F2; ?? . ?? .Z.GXPBEI0I0IPAEI const volatile  // ## UNPATCHED ## - 
?XoKerbBuildApReq@CXoBase@@QAEHKPAT_LARGE_INTEGER@@PAEI1PAI@Z=$000B5BE4;unsigned char * const volatile  // ## UNPATCHED ## - 
?XoKerbCrackApRep@CXoBase@@QAEHKPAT_LARGE_INTEGER@@IPAEI1I@Z=$000B5C0B;unsigned char * const volatile  // ## UNPATCHED ## - 
?xrlufmContinue@CXo@@IAEJPAUXONLINETASK_HANDLE__@@@Z=$000BCA89;CXo.lufmContinue // ## UNPATCHED ## - 
?XOnlineFriendsGetTitleName@CXo@@QAEJKKKPAG@Z=$000BEA48;unsigned char * const volatile  // -- Patched -- 
?XOnlineDashUpdate@CXo@@QAEJPAU_LAUNCH_DATA@@@Z=$000B8CFD;unsigned char * const volatile  // -- Patched -- 
?XOnlineEnableInitialDashUpdate@CXo@@QAEJXZ=$000B8EDA;unsigned char * const volatile  // -- Patched -- 
?XOnlineFriendsEnumerateFinish@CXo@@QAEJPAUXONLINETASK_HANDLE__@@@Z=$000B7E08;unsigned char * const volatile  // -- Patched -- 
?XOnlineFriendsGetLatest@CXo@@QAEKKKPAUXONLINE_FRIEND@@@Z=$000BDED8;unsigned char * const volatile  // -- Patched -- 
?XOnlineFriendsGetLatest@CXo@@QAEKKKPAU_XONLINE_FRIEND@@@Z=$000B9699;unsigned char * const volatile  // -- Patched -- 
?XOnlineFriendsGetLatestByRange@CXo@@QAEJKKPAKPAU_XONLINE_FRIEND@@00@Z=$000B8B5F;unsigned char * const volatile  // ## UNPATCHED ## - 
?XOnlineGetUsers@CXo@@QAEJPAU_XONLINE_USER@@PAK@Z=$000B2806;unsigned char * const volatile  // -- Patched -- 
?XOnlineMessageGet@CXo@@QAEJKKPAEPAXPAPAUXONLINETASK_HANDLE__@@@Z=$000BB9E3;unsigned char * const volatile  // ## UNPATCHED ## - 
?XOnlineRetrieveLogonState@CXo@@QAEJPBU_XONLINE_LOGON_STATE@@PAU_XONLINE_USER@@PAK2@Z=$000B32D3;unsigned char * const volatile  // ## UNPATCHED ## - 
?XOnlineStringGet@CXo@@QAEJGGPAKKPAEPAXPAPAUXONLINETASK_HANDLE__@@@Z=$000BB921;unsigned char * const volatile  // -- Patched -- 
?XOnlineTaskClose@CXo@@QAEJPAUXONLINETASK_HANDLE__@@@Z=$000B23EF;unsigned char * const volatile  // -- Patched -- 
?XOnlineTaskContinue@CXo@@QAEJPAUXONLINETASK_HANDLE__@@@Z=$000B23DA;unsigned char * const volatile  // -- Patched -- 
?XOnlineUploadFromMemory@CXo@@QAEJKPBDPAEPAK1K1KKPAXHPAPAUXONLINETASK_HANDLE__@@@Z=$000BCB90;unsigned char * const volatile  // -- Patched -- 
?XOnlineUploadGetResults@CXo@@QAEJPAUXONLINETASK_HANDLE__@@PAPAEPAKPAT_ULARGE_INTEGER@@32PAU_FILETIME@@@Z=$000BCC73;unsigned char * const volatile  // -- Patched -- 
?XoSysAlloc@@YGPAXIK@Z=$000C4D21; ?? . ?? .Z.GPAXIK const volatile  // ## UNPATCHED ## - 
?XoSysFree@@YGXPAXK@Z=$000C4D37; ?? . ?? .Z.GXPAXK const volatile  // ## UNPATCHED ## - 
?XRL_AsyncConnect@CXo@@IAEJPAUXRL_ASYNC@@@Z=$000C4BE4;unsigned int const volatile  // ## UNPATCHED ## - 
?XRL_BuildGetRequestWithResume@CXo@@IAEJKPBDKPADPAKPAEKPBU_FILETIME@@_KK@Z=$000C44EB;unsigned int const volatile  // ## UNPATCHED ## - 
?XRL_BuildPostRequest@CXo@@IAEJKPBDKPADPAKPAEKT_ULARGE_INTEGER@@K@Z=$000C46C4;unsigned int const volatile  // ## UNPATCHED ## - 
?XRL_CreateWorkEventIfNecessary@CXo@@IAEJPAUXRL_ASYNC@@PAPAX@Z=$000C4A80;unsigned int const volatile  // ## UNPATCHED ## - 
?XRL_FileTimeAsString@CXo@@IAEJPADPAKPBU_FILETIME@@@Z=$000C430A;unsigned int const volatile  // ## UNPATCHED ## - 
?XRL_FileTimeFromString@CXo@@IAEHPBDPAU_FILETIME@@@Z=$000C4382;unsigned int const volatile  // ## UNPATCHED ## - 
?XRL_LookupServiceIPAddress@CXo@@IAEJPAU_XONLINE_SERVICE_INFO@@PAUsockaddr_in@@@Z=$000C4BB0;unsigned int const volatile  // ## UNPATCHED ## - 
?XRL_MainContinue@CXo@@IAEJPAUXONLINETASK_HANDLE__@@QBQ81@AEJPAUXRL_ASYNC@@@ZK@Z=$000C4AD6;unsigned int const volatile  // ## UNPATCHED ## - 
?XRL_ParseOneHeader@CXo@@IAEHPADPAUXRL_ASYNC@@@Z=$000C47FA;unsigned int const volatile  // ## UNPATCHED ## - 
?XRL_ProcessHttp@CXo@@IAEJPAUXRL_ASYNC@@KPAH@Z=$000C499F;unsigned int const volatile  // ## UNPATCHED ## - 
?xrldfCompleted@CXo@@IAEJPAX@Z=$000BBDFF;CXo.ldfCompleted // ## UNPATCHED ## - 
?xrldfDoneHeaders@CXo@@IAEJPAX@Z=$000BBCD9;CXo.ldfDoneHeaders // ## UNPATCHED ## - 
?xrldfProcessData@CXo@@IAEHPAX@Z=$000BBDBE;CXo.ldfProcessData // ## UNPATCHED ## - 
?xrldfWriteFileHandler@CXo@@IAEJPAUXRL_ASYNC_EXTENDED@@@Z=$000BBE2B;CXo.ldfWriteFileHandler // ## UNPATCHED ## - 
?xrldlConnectHandler@CXo@@IAEJPAUXRL_ASYNC@@@Z=$000BBF55;CXo.ldlConnectHandler // ## UNPATCHED ## - 
?xrldlContinue@CXo@@IAEJPAUXONLINETASK_HANDLE__@@@Z=$000BBB52;CXo.ldlContinue // ## UNPATCHED ## - 
?xrldlPostDownloadHandler@CXo@@IAEJPAUXRL_ASYNC@@@Z=$000BBB14;CXo.ldlPostDownloadHandler // ## UNPATCHED ## - 
?xrldlSendHandler@CXo@@IAEJPAUXRL_ASYNC@@@Z=$000BBFEF;CXo.ldlSendHandler // ## UNPATCHED ## - 
?xrldlPreConnectHandler@CXo@@IAEJPAUXRL_ASYNC@@@Z=$000BBAA5;CXo.ldlPreConnectHandler // ## UNPATCHED ## - 
?xrldlProcessDataHandler@CXo@@IAEJPAUXRL_ASYNC@@@Z=$000BC275;CXo.ldlProcessDataHandler // ## UNPATCHED ## - 
?xrldlReceiveHandler@CXo@@IAEJPAUXRL_ASYNC@@@Z=$000BC089;CXo.ldlReceiveHandler // ## UNPATCHED ## - 
?xrldtmCompleted@CXo@@IAEJPAX@Z=$000BBCAD;CXo.ldtmCompleted // ## UNPATCHED ## - 
?xrldtmDoneHeaders@CXo@@IAEJPAX@Z=$000BBC59;CXo.ldtmDoneHeaders // ## UNPATCHED ## - 
?XrlTaskContinue@CXo@@IAEJPAUXONLINETASK_HANDLE__@@@Z=$000C9405;unsigned int const volatile  // ## UNPATCHED ## - 
?xrlufmInitializeTask@CXo@@IAEJW4XRLUPLOAD_EXTTYPE@@PAXPAUXONLINETASK_HANDLE__@@@Z=$000BCA24;CXo.lufmInitializeTask // ## UNPATCHED ## - 
?xrlulConnectHandler@CXo@@IAEJPAUXRL_ASYNC@@@Z=$000BC832;CXo.lulConnectHandler // ## UNPATCHED ## - 
?xrlulContinue@CXo@@IAEJPAUXONLINETASK_HANDLE__@@@Z=$000BC8EE;CXo.lulContinue // ## UNPATCHED ## - 
?xrlulPostUploadHandler@CXo@@IAEJPAUXRL_ASYNC@@@Z=$000BC8B0;CXo.lulPostUploadHandler // ## UNPATCHED ## - 
?xrlulReceivePagedStatusHandler@CXo@@IAEJPAUXRL_ASYNC@@@Z=$000BD0B0;CXo.lulReceivePagedStatusHandler // ## UNPATCHED ## - 
?xrlulPreConnectHandler@CXo@@IAEJPAUXRL_ASYNC@@@Z=$000BC7C3;CXo.lulPreConnectHandler // ## UNPATCHED ## - 
?xrlulReadDataHandler@CXo@@IAEJPAUXRL_ASYNC@@@Z=$000BCD0F;CXo.lulReadDataHandler // ## UNPATCHED ## - 
?xrlulReceiveStatusHandler@CXo@@IAEJPAUXRL_ASYNC@@@Z=$000BCF1C;CXo.lulReceiveStatusHandler // ## UNPATCHED ## - 
?xrlulResultsAvailableHandler@CXo@@IAEJPAUXRL_ASYNC@@@Z=$000BD245;CXo.lulResultsAvailableHandler // ## UNPATCHED ## - 
?xrlulSendDataHandler@CXo@@IAEJPAUXRL_ASYNC@@@Z=$000BCD72;CXo.lulSendDataHandler // ## UNPATCHED ## - 
?xrlulsCompleted@CXo@@IAEJPAX@Z=$000BC9F8;CXo.lulsCompleted // ## UNPATCHED ## - 
@D3DDevice_SetRenderState_Simple@8=$000656E0;D3DDevice.SetRenderState.Simple // ## UNPATCHED ## - 
@D3DDevice_SetVertexShaderConstant1@8=$0006A170;D3DDevice.SetVertexShaderConstant1 // ## UNPATCHED ## - 
@D3DDevice_SetVertexShaderConstant4@8=$0006A1D0;D3DDevice.SetVertexShaderConstant4 // ## UNPATCHED ## - 
@OHCD_fAbortEndpoint@8=$000E158A;OHCD.fAbortEndpoint // ## UNPATCHED ## - 
@OHCD_fCancelQueuedUrbs@8=$000E137E;OHCD.fCancelQueuedUrbs // ## UNPATCHED ## - 
@OHCD_fCleanEndpointTDs@8=$000E2F64;OHCD.fCleanEndpointTDs // ## UNPATCHED ## - 
@OHCD_fCloseEndpoint@8=$000E1523;OHCD.fCloseEndpoint // ## UNPATCHED ## - 
@OHCD_fCompleteRequest@12=$000E2C14;OHCD.fCompleteRequest // ## UNPATCHED ## - 
@OHCD_fCreditTDQuota@8=$000E2C90;OHCD.fCreditTDQuota // ## UNPATCHED ## - 
@OHCD_fDequeueBulkTransfer@8=$000E1316;OHCD.fDequeueBulkTransfer // ## UNPATCHED ## - 
@OHCD_fDequeueControlTransfer@8=$000E12DD;OHCD.fDequeueControlTransfer // ## UNPATCHED ## - 
@OHCD_fGetEndpointState@8=$000E128E;OHCD.fGetEndpointState // ## UNPATCHED ## - 
@OHCD_fDequeueInterruptTransfer@8=$000E134F;OHCD.fDequeueInterruptTransfer // ## UNPATCHED ## - 
@OHCD_fGetTDsRequired@8=$000E38EB;OHCD.fGetTDsRequired // ## UNPATCHED ## - 
@OHCD_fIsochAttachBuffer@8=$000E34BD;OHCD.fIsochAttachBuffer // ## UNPATCHED ## - 
@OHCD_fIsochCloseEndpoint@8=$000E33F0;OHCD.fIsochCloseEndpoint // ## UNPATCHED ## - 
@OHCD_fIsochCompleteCloseEndpoint@8=$000E3434;OHCD.fIsochCompleteCloseEndpoint // ## UNPATCHED ## - 
@OHCD_fIsochOpenEndpoint@8=$000E3243;OHCD.fIsochOpenEndpoint // ## UNPATCHED ## - 
@OHCD_fIsochProcessTD@8=$000E379D;OHCD.fIsochProcessTD // ## UNPATCHED ## - 
@OHCD_fIsochStartTransfer@8=$000E3624;OHCD.fIsochStartTransfer // ## UNPATCHED ## - 
@OHCD_fIsochStopTransfer@8=$000E3743;OHCD.fIsochStopTransfer // ## UNPATCHED ## - 
@OHCD_fMapTransfer@12=$000E391E;OHCD.fMapTransfer // ## UNPATCHED ## - 
@OHCD_fOpenEndpoint@8=$000E111A;OHCD.fOpenEndpoint // ## UNPATCHED ## - 
@OHCD_fPauseEndpoint@8=$000E13F4;OHCD.fPauseEndpoint // ## UNPATCHED ## - 
@OHCD_fPoolInit@4=$000DDA64;OHCD.fPoolInit // ## UNPATCHED ## - 
@OHCD_fProcessAbortPendingList@8=$000E2FBA;OHCD.fProcessAbortPendingList // ## UNPATCHED ## - 
@OHCD_fProcessCancelPendingList@8=$000E2E62;OHCD.fProcessCancelPendingList // ## UNPATCHED ## - 
@OHCD_fProcessClosePendingList@8=$000E3041;OHCD.fProcessClosePendingList // ## UNPATCHED ## - 
@OHCD_fProcessDoneTD@8=$000E2DB6;OHCD.fProcessDoneTD // ## UNPATCHED ## - 
@OHCD_fProcessFailedTD@8=$000E2CC2;OHCD.fProcessFailedTD // ## UNPATCHED ## - 
@OHCD_fProgramBulkTransfer@4=$000E3CA9;OHCD.fProgramBulkTransfer // ## UNPATCHED ## - 
@OHCD_fProgramControlTransfer@4=$000E3CF6;OHCD.fProgramControlTransfer // ## UNPATCHED ## - 
@OHCD_fProgramTransfer@12=$000E3958;OHCD.fProgramTransfer // ## UNPATCHED ## - 
@OHCD_fProgramInterruptTransfer@8=$000E3C56;OHCD.fProgramInterruptTransfer // ## UNPATCHED ## - 
@OHCD_fQueueBulkTransfer@8=$000E3D76;OHCD.fQueueBulkTransfer // ## UNPATCHED ## - 
@OHCD_fQueueControlTransfer@8=$000E3DB2;OHCD.fQueueControlTransfer // ## UNPATCHED ## - 
@OHCD_fQueueInterruptTransfer@12=$000E3D43;OHCD.fQueueInterruptTransfer // ## UNPATCHED ## - 
@OHCD_fQueueTransferRequest@8=$000E3DEE;OHCD.fQueueTransferRequest // ## UNPATCHED ## - 
@OHCD_fSetEndpointState@8=$000E12AF;OHCD.fSetEndpointState // ## UNPATCHED ## - 
@OHCD_Get32BitFrameNumber@4=$000E2ADD;OHCD.Get32BitFrameNumber // ## UNPATCHED ## - 
@OHCD_HookNewEndpointToChildren@12=$000E267B;OHCD.HookNewEndpointToChildren // ## UNPATCHED ## - 
@OHCD_LockUsbFrameCounterToApuSampleCounter@4=$000E2B01;OHCD.LockUsbFrameCounterToApuSampleCounter // ## UNPATCHED ## - 
@OHCD_ReverseBits@8=$000E2665;OHCD.ReverseBits // ## UNPATCHED ## - 
@OHCD_RootHubInitialize@4=$000DD9B4;OHCD.RootHubInitialize // ## UNPATCHED ## - 
@OHCD_RootHubProcessHotPlug@8=$000E23D8;OHCD.RootHubProcessHotPlug // ## UNPATCHED ## - 
@OHCD_RootHubProcessInterrupt@4=$000E24FC;OHCD.RootHubProcessInterrupt // ## UNPATCHED ## - 
@OHCD_ScheduleAddEndpointPeriodic@8=$000E26F2;OHCD.ScheduleAddEndpointPeriodic // ## UNPATCHED ## - 
@OHCD_ScheduleAddEndpointControlOrBulk@8=$000E25D8;OHCD.ScheduleAddEndpointControlOrBulk // ## UNPATCHED ## - 
@OHCD_ScheduleInitialize@4=$000DDC29;OHCD.ScheduleInitialize // ## UNPATCHED ## - 
?SockBind@CXnSock@@AAEJPAVCSocket@@UCIpPort@@@Z=$000CC16C;unsigned char & volatile  // ## UNPATCHED ## - 
?SockCheckSelectEvents@CXnSock@@AAEHPAVCSocket@@HH@Z=$000CC35F;unsigned char & volatile  // ## UNPATCHED ## - 
?SockCleanup@CXnSock@@AAEXPAVCSocket@@@Z=$000CC88E;unsigned char & volatile  // ## UNPATCHED ## - 
?SockClose@CXnSock@@AAEJPAVCSocket@@H@Z=$000CD4F8;unsigned char & volatile  // ## UNPATCHED ## - 
?SockCountSendTotal@CXnSock@@CGIPAU_WSABUF@@I@Z=$000CBDD3;signed char volatile  // ## UNPATCHED ## - 
?socket@CXnSock@@QAEIHHH@Z=$000CDAB7;CXnSock.cket // -- Patched -- 
?SockFlushRecvBuffers@CXnSock@@AAEXPAVCSocket@@@Z=$000CBF7A;unsigned char & volatile  // ## UNPATCHED ## - 
?SockFree@CXnSock@@AAEXPAVCSocket@@@Z=$000CBF32;unsigned char & volatile  // ## UNPATCHED ## - 
?SockLockSelectSockets@CXnSock@@AAEHPAUfd_set@@PAU_SELECTINFO@1@HH@Z=$000CC281;unsigned char & volatile  // ## UNPATCHED ## - 
?SockQueueOverlappedSend@CXnSock@@AAEJPAVCSocket@@PAVCSendReq@@@Z=$000CC4D9;unsigned char & volatile  // ## UNPATCHED ## - 
?SockReadWsaBufs@CXnSock@@CGXPAU_WSABUF@@IIPAEI@Z=$000CBDEC;signed char volatile  // ## UNPATCHED ## - 
?SockReleaseSendBuf@CXnSock@@AAEXPAVCSendBuf@@@Z=$000CBF5F;unsigned char & volatile  // ## UNPATCHED ## - 
?SockReqComplete@CXnSock@@AAEXPAVCSocket@@PAVCSockReq@@J@Z=$000CC7BE;unsigned char & volatile  // ## UNPATCHED ## - 
?SockReset@CXnSock@@AAEXUCIpAddr@@@Z=$000CC810;unsigned char & volatile  // -- Patched -- 
?SockSend@CXnSock@@AAEJPAVCSocket@@PAVCSendReq@@@Z=$000CD344;unsigned char & volatile  // ## UNPATCHED ## - 
?SockUpdateBufferSize@CXnSock@@AAEJPAVCSocket@@HH@Z=$000CC110;unsigned char & volatile  // ## UNPATCHED ## - 
?SockWaitForEvent@CXnSock@@AAEJPAVCSocket@@HI@Z=$000CC73B;unsigned char & volatile  // ## UNPATCHED ## - 
?SoftwareMethod@CMiniport@D3D@@AAEXK@Z=$0006E520;unsigned char & volatile  // ## UNPATCHED ## - 
?SortFriends@CXo@@IAEJPAUXPRESENCE_FRIEND_LIST@@@Z=$000B94A7;unsigned int volatile  // ## UNPATCHED ## - 
?SplitSharedVertices@?$GXTri3Mesh@G$00$0PPPP@@@AAEJPAPAKPAI@Z=$0007CACF;unsigned char & volatile  // ## UNPATCHED ## - 
?SplitSharedVertices@?$GXTri3Mesh@I$0A@$0?0@@AAEJPAPAKPAI@Z=$0007C27B;unsigned char & volatile  // ## UNPATCHED ## - 
?Stop@CMcpxStream@DirectSound@@QAEJ_JK@Z=$0008382D;unsigned char * volatile  // ## UNPATCHED ## - 
?Stop@CMcpxBuffer@DirectSound@@QAEJK@Z=$00085F92;unsigned char * volatile  // ## UNPATCHED ## - 
?Stop@CMcpxStream@DirectSound@@QAEJK@Z=$0008337A;unsigned char * volatile  // ## UNPATCHED ## - 
?StreamConnectBegin@CXo@@IAEJPAUsockaddr_in@@PAUXONLINETASK_SOCKIO@@@Z=$000C534D;unsigned int volatile  // ## UNPATCHED ## - 
?StreamConnectContinue@CXo@@IAEJPAUXONLINETASK_HANDLE__@@@Z=$000C52A4;unsigned int volatile  // ## UNPATCHED ## - 
?StreamConnectInitializeContext@CXo@@IAEXIPAXPAUXONLINETASK_SOCKIO@@@Z=$000C53DB;unsigned int volatile  // ## UNPATCHED ## - 
?StripReorder@?$GXTri3Mesh@G$00$0PPPP@@@AAEJKPAI0PBK@Z=$0007F236;unsigned char & volatile  // ## UNPATCHED ## - 
?StripReorder@?$GXTri3Mesh@I$0A@$0?0@@AAEJKPAI0PBK@Z=$0007EFA5;unsigned char & volatile  // -- Patched -- 
?strtrim@@YGXPAPAD@Z=$000C7EDE;rtrim // ## UNPATCHED ## - 
?SubmitPacket@CMcpxStream@DirectSound@@QAEJABU_XMEDIAPACKET@@@Z=$00083E0D;unsigned char * volatile  // ## UNPATCHED ## - 
?SubmitRequest@IUsbDevice@@QAEJPAT_URB@@@Z=$000E083D;unsigned char * volatile  // ## UNPATCHED ## - 
?SwapFace@?$GXTri3Mesh@G$00$0PPPP@@@AAEXII@Z=$00079E45;unsigned char & volatile  // ## UNPATCHED ## - 
?SwapFace@?$GXTri3Mesh@I$0A@$0?0@@AAEXII@Z=$00079AD4;unsigned char & volatile  // ## UNPATCHED ## - 
?SwapRestoreState@D3D@@YGXPAUSwapSavedState@1@@Z=$000687F0;D3D.GXPAUSwapSavedState volatile  // ## UNPATCHED ## - 
?SwapSaveState@D3D@@YGXPAUSwapSavedState@1@@Z=$00068470;D3D.GXPAUSwapSavedState volatile  // ## UNPATCHED ## - 
?SwapSetState@D3D@@YGXPAUSwapSavedState@1@@Z=$000686D0;D3D.GXPAUSwapSavedState volatile  // ## UNPATCHED ## - 
?SwapVertex@?$GXTri3Mesh@G$00$0PPPP@@@AAEXIIPAE@Z=$00079DA8;unsigned char & volatile  // ## UNPATCHED ## - 
?SwapVertex@?$GXTri3Mesh@I$0A@$0?0@@AAEXIIPAE@Z=$00079A3A;unsigned char & volatile  // -- Patched -- 
?SynchronizeAciInterrupt@CAc97Device@DirectSound@@IAEXXZ=$00087A07;unsigned int volatile  // ## UNPATCHED ## - 
?TaskInitializeContext@CXo@@IAEXPAUXONLINETASK_CONTEXT@@@Z=$000B23C9;unsigned int const volatile  // ## UNPATCHED ## - 
?TcpAcceptConnReqActive@CXnSock@@AAEHPAVCTcpSocket@@PAUCTcpInfo@@PAEI@Z=$000DA5F9;unsigned char & const volatile  // ## UNPATCHED ## - 
?TcpAcceptConnReqPassive@CXnSock@@AAEHPAVCTcpSocket@@PAUCTcpInfo@@UCIpAddr@@UCIpPort@@PAEI@Z=$000DB1B0;unsigned char & const volatile  // ## UNPATCHED ## - 
?TcpBufferMisorderedSegment@CXnSock@@AAEXPAVCTcpSocket@@IPAVCTcpRecvBuf@@@Z=$000D9612;unsigned char & const volatile  // ## UNPATCHED ## - 
?TcpCloneChild@CXnSock@@AAEPAVCTcpSocket@@PAV2@@Z=$000D9C05;unsigned char & const volatile  // ## UNPATCHED ## - 
?TcpClose@CXnSock@@AAEHPAVCTcpSocket@@H@Z=$000DAED2;unsigned char & const volatile  // ## UNPATCHED ## - 
?TcpCompletePendingRecvReqFast@CXnSock@@AAEIPAVCTcpSocket@@EPAEI@Z=$000D96B4;unsigned char & const volatile  // ## UNPATCHED ## - 
?TcpConnect@CXnSock@@AAEJPAVCTcpSocket@@UCIpAddr@@UCIpPort@@H@Z=$000DAF67;unsigned char & const volatile  // ## UNPATCHED ## - 
?TcpConnectionEstablished@CXnSock@@AAEXPAVCTcpSocket@@PAUCTcpInfo@@@Z=$000D9F86;unsigned char & const volatile  // ## UNPATCHED ## - 
?TcpCopyRecvData@CXnSock@@AAEIPAVCTcpSocket@@PAVCRecvReq@@@Z=$000D976D;unsigned char & const volatile  // ## UNPATCHED ## - 
?TcpCorrectMisorderedSegments@CXnSock@@AAEIPAVCTcpSocket@@KPAVCTcpRecvBuf@@@Z=$000D9560;unsigned char & const volatile  // ## UNPATCHED ## - 
?TcpDoFastRexmit@CXnSock@@AAEXPAVCTcpSocket@@@Z=$000D9E4F;unsigned char & const volatile  // ## UNPATCHED ## - 
?TcpEmitACK@CXnSock@@AAEXPAVCTcpSocket@@@Z=$000D9D15;unsigned char & const volatile  // ## UNPATCHED ## - 
?TcpEmitFIN@CXnSock@@AAEJPAVCTcpSocket@@@Z=$000DA5B0;unsigned char & const volatile  // ## UNPATCHED ## - 
?TcpEmitRST@CXnSock@@AAEXPAVCTcpSocket@@UCIpAddr@@UCIpPort@@2KKE@Z=$000D9C35;unsigned char & const volatile  // ## UNPATCHED ## - 
?TcpEmitSYN@CXnSock@@AAEJPAVCTcpSocket@@H@Z=$000DA4CD;unsigned char & const volatile  // ## UNPATCHED ## - 
?TcpPacketAlloc@CXnSock@@AAEPAVCPacket@@PAVCTcpSocket@@UCIpAddr@@UCIpPort@@2KIIP8CXnVoid@@AEXPAV2@@Z@Z=$000D9820;unsigned char & const volatile  // -- Patched -- 
?TcpPacketFree@CXnSock@@AAEXPAVCPacket@@@Z=$000D9891;unsigned char & const volatile  // ## UNPATCHED ## - 
?TcpParseOptions@CXnSock@@AAEHPAEIPAU_TcpOptions@@@Z=$000D9373;unsigned char & const volatile  // ## UNPATCHED ## - 
?TcpProcessFIN@CXnSock@@AAEXPAVCTcpSocket@@K@Z=$000D9EBD;unsigned char & const volatile  // ## UNPATCHED ## - 
?TcpQueueSegment@CXnSock@@AAEXPAVCTcpSocket@@PAVCPacket@@EI@Z=$000DA358;unsigned char & const volatile  // ## UNPATCHED ## - 
?TcpRead@CXnSock@@AAEJPAVCTcpSocket@@PAVCRecvReq@@@Z=$000DA0E1;unsigned char & const volatile  // ## UNPATCHED ## - 
?TcpReset@CXnSock@@AAEPAVCTcpSocket@@PAV2@J@Z=$000D9AAB;unsigned char & const volatile  // -- Patched -- 
?TcpResetPeer@CXnSock@@AAEXPAVCTcpSocket@@@Z=$000D9CE0;unsigned char & const volatile  // ## UNPATCHED ## - 
?TcpSend@CXnSock@@AAEJPAVCTcpSocket@@PAVCSendReq@@K@Z=$000DA789;unsigned char & const volatile  // ## UNPATCHED ## - 
?TcpSendSegment@CXnSock@@AAEXPAVCTcpSocket@@PAVCTcpSendBuf@@H@Z=$000D98A3;unsigned char & const volatile  // ## UNPATCHED ## - 
?TcpShutdown@CXnSock@@AAEJPAVCTcpSocket@@KH@Z=$000DA68C;unsigned char & const volatile  // ## UNPATCHED ## - 
?TcpSlideRecvWindow@CXnSock@@AAEXPAVCTcpSocket@@I@Z=$000D9466;unsigned char & const volatile  // ## UNPATCHED ## - 
?TcpSndNxt@CXnSock@@AAEKPAVCTcpSocket@@@Z=$000D9437;unsigned char & const volatile  // ## UNPATCHED ## - 
?TcpStartOutput@CXnSock@@AAEHPAVCTcpSocket@@@Z=$000DA192;unsigned char & const volatile  // ## UNPATCHED ## - 
?TcpTimer@CXnSock@@AAEXPAVCTimer@@@Z=$000DA3F0;unsigned char & const volatile  // ## UNPATCHED ## - 
?TcpTrimBacklog@CXnSock@@AAEXPAVCTcpSocket@@I@Z=$000D9721;unsigned char & const volatile  // ## UNPATCHED ## - 
?TcpUpdatePersistFlag@CXnSock@@AAEHPAVCTcpSocket@@@Z=$000D9DEE;unsigned char & const volatile  // ## UNPATCHED ## - 
?TcpUpdateRTO@CXnSock@@AAEXPAVCTcpSocket@@@Z=$000D94A5;unsigned char & const volatile  // ## UNPATCHED ## - 
?TcpUpdateSndUna@CXnSock@@AAEXPAVCTcpSocket@@K@Z=$000DA928;unsigned char & const volatile  // ## UNPATCHED ## - 
?TcpValidateSeqs@CXnSock@@AAEHPAVCTcpSocket@@KKPAK1@Z=$000D9320;unsigned char & const volatile  // ## UNPATCHED ## - 
?TcpXmitTimeout@CXnSock@@AAEPAVCTcpSocket@@PAV2@@Z=$000DA289;unsigned char & const volatile  // ## UNPATCHED ## - 
?Terminate@CAc97Channel@DirectSound@@QAEXXZ=$00087E31;unsigned char * const volatile  // ## UNPATCHED ## - 
?Terminate@CAc97Device@DirectSound@@QAEXXZ=$0008805F;unsigned char * const volatile  // ## UNPATCHED ## - 
?TilingUpdateIdle@CMiniport@D3D@@QAEXPAK@Z=$0006EEFA;unsigned char * const volatile  // ## UNPATCHED ## - 
?TimerPush@CXnBase@@AAEXXZ=$000D297F;unsigned char & const volatile  // -- Patched -- 
?TimerSet@CXnBase@@QAEXPAVCTimer@@K@Z=$000D226C;unsigned char * const volatile  // ## UNPATCHED ## - 
?TimerSetRelative@CXnBase@@QAEKPAVCTimer@@K@Z=$000D22D1;unsigned char * const volatile  // ## UNPATCHED ## - 
?UdpConnect@CXnSock@@AAEJPAVCSocket@@UCIpAddr@@UCIpPort@@@Z=$000DB91E;unsigned char & // ## UNPATCHED ## - 
?UdpPacketFree@CXnSock@@AAEXPAVCPacket@@@Z=$000DBB4E;unsigned char & // ## UNPATCHED ## - 
?UdpRead@CXnSock@@AAEJPAVCSocket@@PAVCRecvReq@@@Z=$000DB662;unsigned char & // ## UNPATCHED ## - 
?UdpRecvData@CXnSock@@AAEXPAVCSocket@@UCIpAddr@@UCIpPort@@PAEI3IH@Z=$000DBA12;unsigned char & // ## UNPATCHED ## - 
?UdpSend@CXnSock@@AAEJPAVCSocket@@PAVCSendReq@@K@Z=$000DB721;unsigned char & // -- Patched -- 
?UdpShutdown@CXnSock@@AAEJPAVCSocket@@K@Z=$000DB5FE;unsigned char & // ## UNPATCHED ## - 
?UnInit@CDevice@D3D@@QAEXXZ=$0006BD30;unsigned char * const // ## UNPATCHED ## - 
?UnmapBuffer@CMcpxBuffer@DirectSound@@IAEXXZ=$000856CC;unsigned int // ## UNPATCHED ## - 
?UnmapBuffer@CMcpxBufferSgeHeap@DirectSound@@KGXPAXK@Z=$000867F0;unsigned long // ## UNPATCHED ## - 
?UpdateCurrentIndexEntry@CLocalCache@@QAEXPAE@Z=$000C3340;unsigned char * const // ## UNPATCHED ## - 
?UpdateFriendPresence@CXo@@IAEJPAUXPRESENCE_FRIEND_LIST@@_KKK1GPAEG2@Z=$000B97C8;unsigned int // ## UNPATCHED ## - 
?UpdateMRUList@CLocalCache@@QAEXPAE0@Z=$000C3523;unsigned char * const // ## UNPATCHED ## - 
?UpdateProjectionViewportTransform@D3D@@YGXXZ=$000658A0; ?? .GXXZ // ## UNPATCHED ## - 
?UploadFromMemoryInternal@CXo@@IAEJKPBDPAEK1K1KKPAXPAUXRL_ASYNC_EXTENDED@@PBUXRL_SPECIAL@@@Z=$000BCA91;unsigned int // -- Patched -- 
?USBD_AllocateUsbAddress@@YIEPAU_USBD_HOST_CONTROLLER@@@Z=$000DF86E;IEPAU_USBD_HOST_CONTROLLER // ## UNPATCHED ## - 
?USBD_CompleteDeviceDisconnected@@YGXPAVIUsbDevice@@@Z=$000DF9D3;GXPAVIUsbDevice // ## UNPATCHED ## - 
?USBD_DeviceAbortEnum@@YGXPAT_URB@@PAVIUsbDevice@@@Z=$000DFC57;GXPAT_URB // ## UNPATCHED ## - 
?USBD_DeviceEnumNextPending@@YGXPAT_URB@@PAVIUsbDevice@@@Z=$000DFA25;GXPAT_URB // ## UNPATCHED ## - 
?USBD_DeviceEnumStage0@@YGXXZ=$000DF8F6; ?? .GXXZ // ## UNPATCHED ## - 
?USBD_DeviceEnumStage2@@YGXPAT_URB@@PAVIUsbDevice@@@Z=$000DFEEA;GXPAT_URB // ## UNPATCHED ## - 
?USBD_DeviceEnumStage3@@YGXPAT_URB@@PAVIUsbDevice@@@Z=$000DFCC4;GXPAT_URB // ## UNPATCHED ## - 
?USBD_DeviceEnumStage5@@YGXPAT_URB@@PAVIUsbDevice@@@Z=$000E020C;GXPAT_URB // ## UNPATCHED ## - 
?USBD_DeviceEnumStage6@@YGXPAT_URB@@PAVIUsbDevice@@@Z=$000DFFC5;GXPAT_URB // ## UNPATCHED ## - 
?USBD_DeviceEnumStagePre1@@YGXJPAX@Z=$000DF7F2; ?? . ?? .Z.GXJPAX // ## UNPATCHED ## - 
?USBD_DeviceEnumStagePre4@@YGXPAT_URB@@PAVIUsbDevice@@@Z=$000DF843;GXPAT_URB // ## UNPATCHED ## - 
?USBD_DeviceEnumTimerProc@@YGXPAU_KDPC@@PAX11@Z=$000E0410;GXPAU_KDPC // ## UNPATCHED ## - 
?USBD_fDeviceAbortEnum2@@YIXPAVIUsbDevice@@@Z=$000DFB90;IXPAVIUsbDevice // ## UNPATCHED ## - 
?USBD_fDeviceEnumStage1@@YIXPAVIUsbDevice@@@Z=$000E010C;IXPAVIUsbDevice // ## UNPATCHED ## - 
?USBD_fDeviceEnumStage4@@YIXPAT_URB@@PAVIUsbDevice@@@Z=$000E02C5;IXPAT_URB // ## UNPATCHED ## - 
?USBD_FindClassDriver@@YGPAU_USB_CLASS_DRIVER_DESCRIPTION@@T_PNP_CLASS_ID@@@Z=$000DEA53;GPAU_USB_CLASS_DRIVER_DESCRIPTION // ## UNPATCHED ## - 
?USBD_FreeUsbAddress@@YIXPAU_USBD_HOST_CONTROLLER@@E@Z=$000DF89F;IXPAU_USBD_HOST_CONTROLLER // ## UNPATCHED ## - 
?USBD_LoadClassDriver@@YIXPAVIUsbDevice@@T_PNP_CLASS_ID@@@Z=$000DFEB6;IXPAVIUsbDevice // ## UNPATCHED ## - 
?USBD_SetEnumWatchDog@@YGXXZ=$000DF7D0; ?? .GXXZ // ## UNPATCHED ## - 
?USBD_SubmitSynchronousRequestComplete@@YGXPAT_URB@@PAU_KEVENT@@@Z=$000E0464;GXPAT_URB // ## UNPATCHED ## - 
?USBHUB_ChangeNotifyComplete@@YGXPAT_URB@@PAVIUsbDevice@@@Z=$000E1D2F;GXPAT_URB // ## UNPATCHED ## - 
?USBHUB_ClearHubFeatureComplete@@YGXPAT_URB@@PAVIUsbDevice@@@Z=$000E1C84;GXPAT_URB // ## UNPATCHED ## - 
?USBHUB_PortStatusChange2@@YGXPAT_URB@@PAVIUsbDevice@@@Z=$000E1C29;GXPAT_URB // -- Patched -- 
?USBHUB_ClearInterruptStallComplete@@YGXPAT_URB@@PAVIUsbDevice@@@Z=$000E1B98;GXPAT_URB // ## UNPATCHED ## - 
?USBHUB_ClearPortFeatureComplete@@YGXPAT_URB@@PAVIUsbDevice@@@Z=$000E1FF9;GXPAT_URB // ## UNPATCHED ## - 
?USBHUB_DisableComplete@@YGXPAT_URB@@PAVIUsbDevice@@@Z=$000E1721;GXPAT_URB // ## UNPATCHED ## - 
?USBHUB_DisableResetPort@@YGXPAVIUsbDevice@@EPAXE@Z=$000E1A5D;GXPAVIUsbDevice // ## UNPATCHED ## - 
?USBHUB_EnumHubComplete@@YGXPAT_URB@@PAVIUsbDevice@@@Z=$000E20A9;GXPAT_URB // ## UNPATCHED ## - 
?USBHUB_EnumHubStage1@@YGXPAT_URB@@PAVIUsbDevice@@@Z=$000E21D0;GXPAT_URB // ## UNPATCHED ## - 
?USBHUB_EnumHubStage2@@YGXPAT_URB@@PAVIUsbDevice@@@Z=$000E2154;GXPAT_URB // ## UNPATCHED ## - 
?USBHUB_HubStatusChange@@YGXPAT_URB@@PAVIUsbDevice@@@Z=$000E1DFB;GXPAT_URB // ## UNPATCHED ## - 
?USBHUB_PortProcessChange@@YGXPAVIUsbDevice@@@Z=$000E18AC;GXPAVIUsbDevice // ## UNPATCHED ## - 
?USBHUB_PortStatusChange1@@YGXPAVIUsbDevice@@@Z=$000E1F26;GXPAVIUsbDevice // ## UNPATCHED ## - 
?USBHUB_PoweringPorts@@YGXPAT_URB@@PAVIUsbDevice@@@Z=$000E1EBB;GXPAT_URB // ## UNPATCHED ## - 
?USBHUB_RelatchPortSpeed@@YGXPAVIUsbDevice@@@Z=$000E1745;GXPAVIUsbDevice // ## UNPATCHED ## - 
?USBHUB_RelatchPortSpeedComplete@@YGXPAT_URB@@PAVIUsbDevice@@@Z=$000E2029;GXPAT_URB // ## UNPATCHED ## - 
?USBHUB_RemoveHubComplete@@YGXPAT_URB@@PAVIUsbDevice@@@Z=$000E19FA;GXPAT_URB // ## UNPATCHED ## - 
?USBHUB_RemoveHubStage1@@YGXPAVIUsbDevice@@@Z=$000E1B66;GXPAVIUsbDevice // ## UNPATCHED ## - 
?USBHUB_RemoveHubStage2@@YGXPAT_URB@@PAVIUsbDevice@@@Z=$000E1B44;GXPAT_URB // ## UNPATCHED ## - 
?USBHUB_ResetComplete@@YGXPAT_URB@@PAVIUsbDevice@@@Z=$000E16F5;GXPAT_URB // ## UNPATCHED ## - 
?USBHUB_SetBusy@@YGXPAU_USBHUB_DEVICE_NODE@@H@Z=$000E17A2;GXPAU_USBHUB_DEVICE_NODE // ## UNPATCHED ## - 
?USBHUB_SetEnumWatchdog@@YGXK@Z=$000E1849; ?? . ?? .Z.GXK // ## UNPATCHED ## - 
?USBHUB_WatchdogTimerProc@@YGXPAU_KDPC@@PAX11@Z=$000E17D8;GXPAU_KDPC // ## UNPATCHED ## - 
?UseDefaultCount@IUsbInit@@QAEHXZ=$000DD37D;unsigned char * const // ## UNPATCHED ## - 
?VALIDATE_RESOURCE@D3D@@YGXPAUD3DResource@@W4_D3DRESOURCETYPE@@H@Z=$0006D66E;GXPAUD3DResource const  // ## UNPATCHED ## - 
?VBlank@CMiniport@D3D@@AAEKXZ=$0006E1A0;unsigned char & const  // ## UNPATCHED ## - 
?VCacheStripReorder@?$GXTri3Mesh@G$00$0PPPP@@@AAEJPAV?$CMeshStatus@G$00$0PPPP@@@PAI1@Z=$0007E232;unsigned char & const  // ## UNPATCHED ## - 
?VerifyOnlineUserSignature@CXo@@IAEHPAU_XC_ONLINE_USER_ACCOUNT_STRUCT@@PAE@Z=$000B2558;unsigned int const  // ## UNPATCHED ## - 
?VertexOptimize@?$GXTri3Mesh@G$00$0PPPP@@@AAEJPAI0@Z=$0007981C;unsigned char & const  // ## UNPATCHED ## - 
?VertexOptimize@?$GXTri3Mesh@I$0A@$0?0@@AAEJPAI0@Z=$000796D0;unsigned char & const  // ## UNPATCHED ## - 
?VideoBitsPerPixelOfD3DFORMAT@D3D@@YGKW4_D3DFORMAT@@@Z=$0006D270;GKW4_D3DFORMAT const  // ## UNPATCHED ## - 
?WaitForMagicWrite@CMcpxAPU@DirectSound@@IAEXXZ=$000827FD;unsigned int volatile  // ## UNPATCHED ## - 
?WaitForVoiceOff@CMcpxVoiceClient@DirectSound@@IAEXXZ=$0008503D;unsigned int volatile  // ## UNPATCHED ## - 
?Win32FromUsbdStatus@IUsbDevice@@SGKJ@Z=$000E04A7;unsigned long volatile * volatile  // ## UNPATCHED ## - 
?WithinEpsilon@@YAHMM@Z=$00077EA0; ?? . ?? .Z.AHMM volatile  // ## UNPATCHED ## - 
?WSAGetOverlappedResult@CXnSock@@QAEHIPAU_OVERLAPPED@@PAKH1@Z=$000CD040;unsigned char * volatile  // -- Patched -- 
?WSARecv@CXnSock@@QAEHIPAU_WSABUF@@KPAK1PAU_OVERLAPPED@@P6GXKK2K@Z@Z=$000CD576;unsigned char * volatile  // -- Patched -- 
?WSASend@CXnSock@@QAEHIPAU_WSABUF@@KPAKKPAU_OVERLAPPED@@P6GXKK2K@Z@Z=$000CD613;unsigned char * volatile  // -- Patched -- 
?WSASendTo@CXnSock@@QAEHIPAU_WSABUF@@KPAKKPBUsockaddr@@HPAU_OVERLAPPED@@P6GXKK3K@Z@Z=$000CD6AE;unsigned char * volatile  // -- Patched -- 
?WToUtf8@CXo@@IAEPAEPAGPAEPBG@Z=$000BD2D5;unsigned int volatile  // ## UNPATCHED ## - 
?XformBy4x3@D3D@@YGXPAU_D3DVECTOR@@PBU2@MPBU_D3DMATRIX@@@Z=$0006C850;GXPAU_D3DVECTOR const volatile  // ## UNPATCHED ## - 
?XID_ClearInputStallComplete@@YGXPAT_URB@@PAU_XID_OPEN_DEVICE@@@Z=$000E4DAF;GXPAT_URB const volatile  // ## UNPATCHED ## - 
?XID_CloseEndpointStateMachine@@YGXPAU_URB_CLOSE_ENDPOINT@@PAU_XID_OPEN_DEVICE@@@Z=$000E4C49;GXPAU_URB_CLOSE_ENDPOINT const volatile  // ## UNPATCHED ## - 
?XID_EnumKeyboard@@YGXPAT_URB@@PAU_XID_DEVICE_NODE@@@Z=$000E4FA4;GXPAT_URB const volatile  // ## UNPATCHED ## - 
?XID_EnumKeyboardComplete@@YGXPAT_URB@@PAU_XID_DEVICE_NODE@@@Z=$000E4EFC;GXPAT_URB const volatile  // ## UNPATCHED ## - 
?XID_EnumLegacy1@@YGXPAT_URB@@PAU_XID_DEVICE_NODE@@@Z=$000E5101;GXPAT_URB const volatile  // ## UNPATCHED ## - 
?XID_EnumStage1@@YGXPAT_URB@@PAU_XID_DEVICE_NODE@@@Z=$000E51BD;GXPAT_URB const volatile  // ## UNPATCHED ## - 
?XID_fCloseDevice@@YIXPAU_XID_OPEN_DEVICE@@@Z=$000E506A;IXPAU_XID_OPEN_DEVICE const volatile  // ## UNPATCHED ## - 
?XID_fCloseEndpoints@@YIXPAU_XID_OPEN_DEVICE@@@Z=$000E4F86;IXPAU_XID_OPEN_DEVICE const volatile  // ## UNPATCHED ## - 
?XID_fFindNode@@YIPAU_XID_DEVICE_NODE@@PAU_XID_TYPE_INFORMATION@@K@Z=$000E4B34;IPAU_XID_DEVICE_NODE const volatile  // ## UNPATCHED ## - 
?XID_fOpenDevice@@YIKPAU_XID_TYPE_INFORMATION@@KPAPAU_XID_OPEN_DEVICE@@PAU_XINPUT_POLLING_PARAMETERS@@@Z=$000E52B1;IKPAU_XID_TYPE_INFORMATION const volatile  // ## UNPATCHED ## - 
?XID_fOpenEndpoints@@YIJPAU_XID_OPEN_DEVICE@@PAU_XINPUT_POLLING_PARAMETERS@@@Z=$000E4B9E;IJPAU_XID_OPEN_DEVICE const volatile  // ## UNPATCHED ## - 
?XID_fRemoveDeviceComplete@@YIXPAU_XID_DEVICE_NODE@@@Z=$000E4B11;IXPAU_XID_DEVICE_NODE const volatile  // ## UNPATCHED ## - 
?XID_fWaitForUrb@@YIXPAVIUsbDevice@@PAT_URB@@PAU_KEVENT@@@Z=$000E4EAF;IXPAVIUsbDevice const volatile  // ## UNPATCHED ## - 
?XID_NewInterruptData@@YGXPAT_URB@@PAU_XID_OPEN_DEVICE@@@Z=$000E4CFA;GXPAT_URB const volatile  // ## UNPATCHED ## - 
?XID_ProcessGamepadData@@YIXPAU_XID_OPEN_DEVICE@@@Z=$000E4E39;IXPAU_XID_OPEN_DEVICE const volatile  // ## UNPATCHED ## - 
?XID_ProcessIRRemoteData@@YIXPAU_XID_OPEN_DEVICE@@@Z=$000E4E8B;IXPAU_XID_OPEN_DEVICE const volatile  // ## UNPATCHED ## - 
?XID_SetEnumWatchdog@@YGXXZ=$000E4AE5; ?? .GXXZ const volatile  // ## UNPATCHED ## - 
?XID_WatchdogTimerProc@@YGXPAU_KDPC@@PAX11@Z=$000E4B00;GXPAU_KDPC const volatile  // ## UNPATCHED ## - 
?XkerbBuildApReq@CXo@@IAEJKPAT_LARGE_INTEGER@@PAEI1PAI@Z=$000B5B36;unsigned int const volatile  // -- Patched -- 
?XkerbCrackApRep@CXo@@IAEJKPAT_LARGE_INTEGER@@IPAEI1I@Z=$000B5B89;unsigned int const volatile  // -- Patched -- 
?XkerbBuildApRequest@CXo@@IAEJPAUXKERB_SERVICE_CONTEXT@@PAT_LARGE_INTEGER@@PAEI2PAI@Z=$000C7DCD;unsigned int const volatile  // ## UNPATCHED ## - 
?XkerbBuildAsRequest@CXo@@IAEJHPAUXONLINEP_USER@@PAEPAKPAUXKERB_TGT_CONTEXT@@@Z=$000C6D34;unsigned int const volatile  // ## UNPATCHED ## - 
?XkerbBuildTgsRequest@CXo@@IAEJPAUXKERB_TGT_CONTEXT@@PAEPAKPAUXKERB_SERVICE_CONTEXT@@@Z=$000C7A73;unsigned int const volatile  // ## UNPATCHED ## - 
?XkerbVerifyApReply@CXo@@IAEJPAUXKERB_SERVICE_CONTEXT@@PAT_LARGE_INTEGER@@IPAEI2I@Z=$000C66CC;unsigned int const volatile  // ## UNPATCHED ## - 
?XkerbVerifyAsReply@CXo@@IAEJPAEKPAUXKERB_TGT_CONTEXT@@@Z=$000C70A8;unsigned int const volatile  // ## UNPATCHED ## - 
?XkerbVerifyTgsReply@CXo@@IAEJPAUXKERB_TGT_CONTEXT@@PAEKPAUXKERB_SERVICE_CONTEXT@@@Z=$000C742E;unsigned int const volatile  // ## UNPATCHED ## - 
?XmitComplete@CXbdmClient@CXnNic@@UAEXPAX@Z=$000D3572; ?? . ?? .Z.AEXPAX const volatile  // ## UNPATCHED ## - 
?XMOCompletePacket@@YGXPBU_XMEDIAPACKET@@KP6GXPAX1K@Z1K@Z=$00083204;GXPBU_XMEDIAPACKET const volatile  // ## UNPATCHED ## - 
?XMOAcceptPacket@@YGXPBU_XMEDIAPACKET@@@Z=$000831E6;GXPBU_XMEDIAPACKET const volatile  // ## UNPATCHED ## - 
?XNetConnect@CXn@@QAEHUin_addr@@@Z=$000CB45D;unsigned char * const volatile  // -- Patched -- 
?XNetDnsRelease@CXn@@QAEHPAUXNDNS@@@Z=$000CD114;unsigned char * const volatile  // -- Patched -- 
?XNetGetConfigStatus@CXn@@QAEHPAUXNetConfigStatus@@@Z=$000CB49F;unsigned char * const volatile  // ## UNPATCHED ## - 
?XNetUnregisterInAddr@CXn@@QAEHUin_addr@@@Z=$000CDE03;unsigned char * const volatile  // -- Patched -- 
?XNetUnregisterKey@CXn@@QAEHPBUXNKID@@@Z=$000D0515;unsigned char * const volatile  // -- Patched -- 
?XNetConfig@CXn@@QAEHPBUXNetConfigParams@@K@Z=$000CB48E;unsigned char * const volatile  // ## UNPATCHED ## - 
?XNetCreateKey@CXn@@QAEHPAUXNKID@@PAUXNKEY@@@Z=$000CCB3D;unsigned char * const volatile  // -- Patched -- 
?XNetRegisterKey@CXn@@QAEHPBUXNKID@@PBUXNKEY@@@Z=$000CFBF8;unsigned char * const volatile  // -- Patched -- 
?XNetGetDebugXnAddr@CXn@@QAEKPAUXNADDR@@@Z=$000D05FE;unsigned char * const volatile  // -- Patched -- 
?XNetGetTitleXnAddr@CXn@@QAEKPAUXNADDR@@@Z=$000CE9B1;unsigned char * const volatile  // -- Patched -- 
?XNetRandom@CXn@@QAEHPAEI@Z=$000CB440;unsigned char * const volatile  // ## UNPATCHED ## - 
?XnHmac@@YGXPBEI0I0IPAEI@Z=$000D2373; ?? . ?? .Z.GXPBEI0I0IPAEI const volatile  // -- Patched -- 
?XnHmacVerify@@YGHPBEI0I0I0I@Z=$000D23B3; ?? . ?? .Z.GHPBEI0I0I0I const volatile  // ## UNPATCHED ## - 
?XnKeyExDhGXIsInvalid@@YGHPBE@Z=$000D244A; ?? . ?? .Z.GHPBE const volatile  // ## UNPATCHED ## - 
?XnKeyExVerify@@YGHPAUCKeyExHdr@@I@Z=$000D23EC;GHPAUCKeyExHdr const volatile  // ## UNPATCHED ## - 
?XnKeyExLookup@@YGPAUCKeyExHdr@@PAU1@IG@Z=$000D2420;GPAUCKeyExHdr const volatile  // ## UNPATCHED ## - 
?XnLogonGetQFlags@CXoBase@@QAEKI@Z=$000CB986;unsigned char * const volatile  // -- Patched -- 
?XnLogonNoteSystemTime@CXoBase@@QAEXXZ=$000CB9C1;unsigned char * const volatile  // -- Patched -- 
?XnLogonSetQVals@CXoBase@@QAEHIPAUCQVal@@I@Z=$000CB991;unsigned char * const volatile  // -- Patched -- 
?XnSetEventTimer@CXoBase@@QAEXPAEPAXK@Z=$000CB9D7;unsigned char * const volatile  // -- Patched -- 
_XNetConfig@8=$000CB4B0;XNetConfig // -- Patched -- 
_XNetConnect@4=$000CB51A;XNetConnect // -- Patched -- 
_XNetCreateKey@8=$000CB560;XNetCreateKey // -- Patched -- 
_XNetDnsRelease@4=$000CB594;XNetDnsRelease // -- Patched -- 
_XNetGetConfigStatus@4=$000CB4BB;XNetGetConfigStatus // -- Patched -- 
_XNetGetConnectStatus@4=$000CB970;XNetGetConnectStatus // -- Patched -- 
_XNetGetDebugXnAddr@4=$000CB97B;XNetGetDebugXnAddr // -- Patched -- 
_XNetGetTitleXnAddr@4=$000CB99C;XNetGetTitleXnAddr // -- Patched -- 
_XNetInAddrToString@12=$000CB9B6;XNetInAddrToString // -- Patched -- 
_XNetRandom@8=$000CB4C6;XNetRandom // -- Patched -- 
_XNetRegisterKey@8=$000CB9CC;XNetRegisterKey // -- Patched -- 
_XNetUnregisterInAddr@4=$000CB9E2;XNetUnregisterInAddr // -- Patched -- 
_XNetUnregisterKey@4=$000CBC09;XNetUnregisterKey // ## UNPATCHED ## - 
_XOnlineChangeLogonUsersTaskGetResults@8=$000B1380;XOnlineChangeLogonUsersTaskGetResults // -- Patched -- 
_XOnlineContentInstallGetProgress@16=$000B138B;XOnlineContentInstallGetProgress // -- Patched -- 
_XOnlineContentSetSecurityKey@4=$000B13B7;XOnlineContentSetSecurityKey // -- Patched -- 
_XOnlineDashUpdate@4=$000B13C2;XOnlineDashUpdate // -- Patched -- 
_XOnlineDownloadGetProgress@16=$000B13CD;XOnlineDownloadGetProgress // -- Patched -- 
_XOnlineEnableInitialDashUpdate@0=$000B13E3;XOnlineEnableInitialDashUpdate // -- Patched -- 
_XOnlineEnumerateTitlesBegin@12=$000B1426;XOnlineEnumerateTitlesBegin // ## UNPATCHED ## - 
_XOnlineEnumerateTitlesContinue@4=$000B1498;XOnlineEnumerateTitlesContinue // ## UNPATCHED ## - 
_XOnlineEnumerateTitlesGetResults@12=$000B14BD;XOnlineEnumerateTitlesGetResults // -- Patched -- 
_XOnlineFriendsAnswerGameInvite@12=$000B13D8;XOnlineFriendsAnswerGameInvite // ## UNPATCHED ## - 
_XOnlineFriendsAnswerRequest@12=$000B1452;XOnlineFriendsAnswerRequest // ## UNPATCHED ## - 
_XOnlineFriendsEnumerate@12=$000B14DE;XOnlineFriendsEnumerate // -- Patched -- 
_XOnlineFriendsEnumerateFinish@4=$000B1396;XOnlineFriendsEnumerateFinish // -- Patched -- 
_XOnlineFriendsGetAcceptedGameInvite@4=$000B1482;XOnlineFriendsGetAcceptedGameInvite // ## UNPATCHED ## - 
_XOnlineFriendsGetLatest@12=$000B13A1;XOnlineFriendsGetLatest // ## UNPATCHED ## - 
_XOnlineFriendsGetTitleName@16=$000B14F4;XOnlineFriendsGetTitleName // ## UNPATCHED ## - 
_XOnlineFriendsJoinGame@8=$000B1520;XOnlineFriendsJoinGame // -- Patched -- 
_XOnlineFriendsRemove@8=$000B152B;XOnlineFriendsRemove // ## UNPATCHED ## - 
?NicStop@CXnNic@@IAEXXZ=$000D342A;CXnNic.Stop const  // ## UNPATCHED ## - 
?NicStopXmitRecv@CXnNic@@AAEXXZ=$000D2D76;CXnNic.StopXmitRecv const  // ## UNPATCHED ## - 
?NicTerm@CXnNic@@IAEXXZ=$000D3494;CXnNic.Term const  // ## UNPATCHED ## - 
?NicTimer@CXnNic@@QAEXXZ=$000D32F0;CXnNic.Timer const  // ## UNPATCHED ## - 
?NicXmit@CXnNic@@QAEXPAVCPacket@@@Z=$000D31C3;CXnNic.Xmit const  // ## UNPATCHED ## - 
?NicXmitInterrupt@CXnNic@@AAEXXZ=$000D30F6;CXnNic.XmitInterrupt const  // ## UNPATCHED ## - 
?NicXmitReady@CXnNic@@QAEHXZ=$000D2F06;CXnNic.XmitReady const  // ## UNPATCHED ## - 
?NormalizeVector3@D3D@@YGXPAU_D3DVECTOR@@@Z=$0006CB40;D3D.malizeVector3 const  // ## UNPATCHED ## - 
?NotificationContinue@CXo@@IAEJPAUXONLINETASK_HANDLE__@@@Z=$000B8F22;CXo.ificationContinue const  // ## UNPATCHED ## - 
?NotificationSendDequeue@CXo@@IAEJKGPAUXPRESENCE_EXTENDED_HANDLE@@@Z=$000B7CE8;CXo.ificationSendDequeue const  // ## UNPATCHED ## - 
?NtStatusFromUsbdStatus@IUsbDevice@@SGJJ@Z=$000E0515;IUsbDevice.tusFromUsbdStatus // ## UNPATCHED ## - 
?nvInv@D3D@@YGMM@Z=$0006CB00;D3D.Inv // ## UNPATCHED ## - 
?OnDeferredFlush@CMcpxStream@DirectSound@@IAEXXZ=$00083B45;char volatile  // ## UNPATCHED ## - 
?OnDeferredTerminate@CMcpxBuffer@DirectSound@@IAEXXZ=$000861FB;char volatile  // ## UNPATCHED ## - 
?OpenDefaultEndpoint@IUsbDevice@@AAEJPAT_URB@@@Z=$000E0601;IUsbDevice.nDefaultEndpoint volatile  // ## UNPATCHED ## - 
?Optimize@?$GXTri3Mesh@G$00$0PPPP@@@UAGJKPBKPAK1PAPAUID3DXBuffer@@PAPAUID3DXMesh@@@Z=$000803FE;GXTri3Mesh<unsigned short,1,65535>.imize volatile  // ## UNPATCHED ## - 
?Optimize@?$GXTri3Mesh@I$0A@$0?0@@UAGJKPBKPAK1PAPAUID3DXBuffer@@PAPAUID3DXMesh@@@Z=$000802C9;GXTri3Mesh<unsigned int,0,-1>.imize volatile  // ## UNPATCHED ## - 
?OptimizeInplace@?$GXTri3Mesh@G$00$0PPPP@@@UAGJKPBKPAK1PAPAUID3DXBuffer@@@Z=$000804EF;GXTri3Mesh<unsigned short,1,65535>.imizeInplace volatile  // ## UNPATCHED ## - 
?OptimizeInplace@?$GXTri3Mesh@I$0A@$0?0@@UAGJKPBKPAK1PAPAUID3DXBuffer@@@Z=$000803BA;GXTri3Mesh<unsigned int,0,-1>.imizeInplace volatile  // ## UNPATCHED ## - 
?OptimizeInternal@?$GXTri3Mesh@G$00$0PPPP@@@AAEJKPBKPAK1PAPAUID3DXBuffer@@PAUD3DVertexBuffer@@K@Z=$0007FCE0;GXTri3Mesh<unsigned short,1,65535>.imizeInternal volatile  // ## UNPATCHED ## - 
?OptimizeInternal@?$GXTri3Mesh@I$0A@$0?0@@AAEJKPBKPAK1PAPAUID3DXBuffer@@PAUD3DVertexBuffer@@K@Z=$0007F709;GXTri3Mesh<unsigned int,0,-1>.imizeInternal volatile  // -- Patched -- 
?or@@YIXPCGG@Z=$00083FED;?or // ## UNPATCHED ## - 
?OrderFriends@CXo@@IAEHPBUXONLINE_FRIEND_INTERNAL@@0@Z=$000B93AB;CXo.erFriends volatile  // ## UNPATCHED ## - 
?PacketAlloc@CXnBase@@QAEPAVCPacket@@KKIIIP8CXnVoid@@AEXPAV2@@Z@Z=$000D2A6C;CXnBase.ketAlloc const volatile  // ## UNPATCHED ## - 
?ParseDeclarationConstants@D3D@@YGKPBKPCK@Z=$00069F30;D3D.seDeclarationConstants const volatile  // ## UNPATCHED ## - 
?PacketFree@CXnBase@@QAEXPAVCPacket@@@Z=$000D2738;CXnBase.ketFree const volatile  // ## UNPATCHED ## - 
?ParseDeclarationStream@D3D@@YGXPAUVertexShader@1@PBKH@Z=$00069D90;D3D.seDeclarationStream const volatile  // ## UNPATCHED ## - 
?ParseProgram@D3D@@YGPCKPCKPBKK@Z=$00069D20;D3D.seProgram const volatile  // ## UNPATCHED ## - 
?ParseXML@CXo@@IAEXQADQAU_PARSEXML_ELEMENT@@PAUCXmlCtx@@@Z=$000C8913;CXo.seXML const volatile  // ## UNPATCHED ## - 
?ParseUPnPHeaders@@YGXQADPAU_UPNP_HEADER_INFO@@@Z=$000C7F26;seUPnPHeaders const volatile  // ## UNPATCHED ## - 
?ParseXMLAttributes@CXo@@IAEXQADQAPAD1KQAK@Z=$000C812B;CXo.seXMLAttributes const volatile  // ## UNPATCHED ## - 
?ParseXMLCallback_ControlResponse@CXo@@IAEXQAU_PARSEXML_ELEMENT@@PAUCXmlCtx@@QBUtagPARSEXML_STACKENTRY@@QAH@Z=$000C8831;CXo.seXMLCallback_ControlResponse const volatile  // ## UNPATCHED ## - 
?ParseXMLCallback_DescriptionResponse@CXo@@IAEXQAU_PARSEXML_ELEMENT@@PAUCXmlCtx@@QAUtagPARSEXML_STACKENTRY@@QAH@Z=$000C8028;CXo.seXMLCallback_DescriptionResponse const volatile  // ## UNPATCHED ## - 
?Pause@CAc97Channel@DirectSound@@QAEXXZ=$00087A50;DirectSound.CAc97Channel.se const volatile  // ## UNPATCHED ## - 
?Pause@CMcpxBuffer@DirectSound@@QAEJK@Z=$000859D2;DirectSound.CMcpxBuffer.se const volatile  // -- Patched -- 
?Pause@CMcpxStream@DirectSound@@QAEJK@Z=$00083EDB;DirectSound.CMcpxStream.se const volatile  // ## UNPATCHED ## - 
?PauseVoice@CMcpxVoiceClient@DirectSound@@IAEJK@Z=$00084991;DirectSound.CMcpxVoiceClient.seVoice const volatile  // ## UNPATCHED ## - 
?PhysicalAlloc@CMemoryManager@DirectSound@@SGPAXKKKH@Z=$0008224E;DirectSound.CMemoryManager.sicalAlloc const volatile  // ## UNPATCHED ## - 
?PcmToInternalFormat@WaveFormat@DirectSound@@YGXPAUDSWAVEFORMAT@@PBUtWAVEFORMATEX@@@Z=$00082351;DirectSound.WaveFormat.ToInternalFormat const volatile  // ## UNPATCHED ## - 
?PhysicalFree@CMemoryManager@DirectSound@@SGXPAX@Z=$0008229D;DirectSound.CMemoryManager.sicalFree const volatile  // ## UNPATCHED ## - 
?PoolFree@CMemoryManager@DirectSound@@SGXPAX@Z=$00082236;DirectSound.CMemoryManager.lFree const volatile  // -- Patched -- 
?PoolAlloc@CMemoryManager@DirectSound@@SGPAXW4DSOUND_POOL_TAG@@KH@Z=$000821EF;DirectSound.CMemoryManager.lAlloc const volatile  // ## UNPATCHED ## - 
?PlayFromCurrent@CMcpxBuffer@DirectSound@@IAEXK@Z=$00085712;DirectSound.CMcpxBuffer.yFromCurrent const volatile  // -- Patched -- 
?PlayFromPosition@CMcpxBuffer@DirectSound@@IAEXKK@Z=$00085853;DirectSound.CMcpxBuffer.yFromPosition const volatile  // ## UNPATCHED ## - 
?PokeAc97Register@CAc97Device@DirectSound@@KGHW4AC97REGISTER@@G@Z=$00087A1B;DirectSound.CAc97Device.eAc97Register const volatile  // ## UNPATCHED ## - 
?PoolAlloc@CXnBase@@QAEPAXIK@Z=$000D249C;CXnBase.lAlloc const volatile  // ## UNPATCHED ## - 
?PoolAlloc@CXo@@IAEPAXIK@Z=$000C4DA9;CXo.lAlloc const volatile  // ## UNPATCHED ## - 
?PoolAllocZ@CXnBase@@QAEPAXIK@Z=$000D259C;CXnBase.lAllocZ const volatile  // ## UNPATCHED ## - 
?SysAllocZ@CXo@@IAEPAXIK@Z=$000C4D64;unsigned int volatile  // -- Patched -- 
?PoolAllocZ@CXo@@IAEPAXIK@Z=$000C4DBD;CXo.lAllocZ const volatile  // ## UNPATCHED ## - 
?PoolFree@CXnBase@@QAEXPAX@Z=$000D25CE;CXnBase.lFree const volatile  // ## UNPATCHED ## - 
?PoolFree@CXo@@IAEXPAX@Z=$000C4DD1;CXo.lFree const volatile  // ## UNPATCHED ## - 
?PowerUp@CAc97Device@DirectSound@@IAEJXZ=$00087A38;DirectSound.CAc97Device.erUp const volatile  // ## UNPATCHED ## - 
?PrepareNewCache@CLocalCache@@QAEJXZ=$000C39FF;CLocalCache.pareNewCache const volatile  // ## UNPATCHED ## - 
?PrepareSectorsForWrite@CLocalCache@@AAEXPAVCSector@@KK@Z=$000C2339;CLocalCache.pareSectorsForWrite const volatile  // ## UNPATCHED ## - 
?PrependElement@?$CMeshStatus@G$00$0PPPP@@@AAEXG@Z=$0007A40D;CMeshStatus<unsigned short,1,65535>.pendElement const volatile  // ## UNPATCHED ## - 
?PresenceContinue@CXo@@IAEJPAUXPRESENCE_EXTENDED_HANDLE@@@Z=$000B833E;CXo.senceContinue const volatile  // ## UNPATCHED ## - 
?PrependElement@?$CMeshStatus@I$0A@$0?0@@AAEXI@Z=$0007A320;CMeshStatus<unsigned int,0,-1>.pendElement const volatile  // ## UNPATCHED ## - 
?PresenceSendMsg@CXo@@IAEJPAUBASE_MSG_HEADER@@IKPAUXPRESENCE_EXTENDED_HANDLE@@W4XPRESENCE_SERVER_TYPE@@H@Z=$000B7E8E;CXo.senceSendMsg const volatile  // ## UNPATCHED ## - 
?Process@CDirectSoundStream@DirectSound@@UAGJPBU_XMEDIAPACKET@@0@Z=$000811D1;DirectSound.CDirectSoundStream.cess const volatile  // ## UNPATCHED ## - 
?Process@CMcpxStream@DirectSound@@IAEKXZ=$00083B55;DirectSound.CMcpxStream.cess const volatile  // -- Patched -- 
?Process@IUsbInit@@QAEXXZ=$000DD58B;IUsbInit.cess const volatile  // ## UNPATCHED ## - 
?ProcessNotifications@CXo@@IAEJPAUQ_LIST_REPLY_MSG@@_K@Z=$000BA9E5;CXo.cessNotifications const volatile  // ## UNPATCHED ## - 
?QueryInterface@CD3DXSkinMesh@@UAGJABU_GUID@@PAPAX@Z=$0008058F;AGJABU_GUID // ## UNPATCHED ## - 
?QueryInterface@?$GXTri3Mesh@I$0A@$0?0@@UAGJABU_GUID@@PAPAX@Z=$00079197;AGJABU_GUID // ## UNPATCHED ## - 
?Raise@CIrql@DirectSound@@QAEXXZ=$00080750;unsigned char * const  // ## UNPATCHED ## - 
?Rand@CXnBase@@QAEXPAEI@Z=$000D26F7;unsigned char * const  // ## UNPATCHED ## - 
?RandLong@CXnBase@@QAEKXZ=$000D2724;unsigned char * const  // ## UNPATCHED ## - 
?RatioToPitch@Math@DirectSound@@YGJM@Z=$00083FCF; ?? . ?? .Z.GJM const  // ## UNPATCHED ## - 
?rc4HmacDecrypt@@YGJPBEKKPAEK1PAK@Z=$000C5921;?rc4HmacDecrypt // ## UNPATCHED ## - 
?rc4HmacEncrypt@@YGJPAVCScratchMemoryAllocator@@PBEKKPAEK2PAK@Z=$000C613A;?rc4HmacEncrypt // ## UNPATCHED ## - 
_IsBadCodePtr@4=$0005F5BE;IsBadCodePtr // ## UNPATCHED ## - 
?ReadWriteFileBegin@CXo@@IAEJPAUXONLINETASK_FILEIO@@H@Z=$000C5186;unsigned int const  // -- Patched -- 
?ReadWriteFileClose@CXo@@IAEXPAUXONLINETASK_HANDLE__@@@Z=$000C5175;unsigned int const  // ## UNPATCHED ## - 
?ReadWriteFileContinue@CXo@@IAEJPAUXONLINETASK_HANDLE__@@@Z=$000C5119;unsigned int const  // ## UNPATCHED ## - 
?SysFree@CXo@@IAEXPAX@Z=$000CD26A;unsigned int volatile  // -- Patched -- 
_Sleep@4=$0003A492;Sleep // ## UNPATCHED ## - 
?RecvReqEnqueue@CXnSock@@AAEJPAVCSocket@@PAVCRecvReq@@@Z=$000CC464;unsigned char & const  // ## UNPATCHED ## - 
?ReentrantKickOffAndWait@CDevice@D3D@@QAEXXZ=$0006C2D0;unsigned char * const  // -- Patched -- 
?RegisterResources@IUsbInit@@QAEXPAU_USB_RESOURCE_REQUIREMENTS@@@Z=$000DD389;unsigned char * const  // ## UNPATCHED ## - 
?Release@CD3DXRenderToSurface@@UAGKXZ=$000805D6; ?? .AGKXZ const  // ## UNPATCHED ## - 
?Release@?$GXTri3Mesh@G$00$0PPPP@@@UAGKXZ=$0007D450; ?? .AGKXZ const  // -- Patched -- 
?Release@?$GXTri3Mesh@I$0A@$0?0@@UAGKXZ=$0007E55C; ?? .AGKXZ const  // ## UNPATCHED ## - 
?Release@CDirectSound@DirectSound@@UAGKXZ=$00081873; ?? .AGKXZ const  // ## UNPATCHED ## - 
?Release@CRefCount@DirectSound@@UAGKXZ=$000807EA; ?? .AGKXZ const  // ## UNPATCHED ## - 
?ReleaseChannel@CAc97Device@DirectSound@@QAEXW4AC97CHANNELTYPE@@@Z=$00088020;unsigned char * const  // ## UNPATCHED ## - 
?ReleaseVoice@CMcpxVoiceClient@DirectSound@@IAEXXZ=$000848B3;unsigned int const  // ## UNPATCHED ## - 
?ReleaseVoiceResources@CMcpxVoiceClient@DirectSound@@IAEXXZ=$0008421A;unsigned int const  // ## UNPATCHED ## - 
?RemapFace@?$GXTri3Mesh@G$00$0PPPP@@@AAEXIPAI0@Z=$00079D44;unsigned char & const  // ## UNPATCHED ## - 
?RemapFace@?$GXTri3Mesh@I$0A@$0?0@@AAEXIPAI0@Z=$000799E3;unsigned char & const  // ## UNPATCHED ## - 
?RemapVertex@?$GXTri3Mesh@G$00$0PPPP@@@AAEXIPAI@Z=$00079D23;unsigned char & const  // ## UNPATCHED ## - 
?RemapVertex@?$GXTri3Mesh@I$0A@$0?0@@AAEXIPAI@Z=$000799C5;unsigned char & const  // ## UNPATCHED ## - 
?RemoveChild@IUsbDevice@@QAEEPAV1@@Z=$000E076C;unsigned char * const  // ## UNPATCHED ## - 
?RemoveComplete@IUsbDevice@@QAEXXZ=$000DF95D;unsigned char * const  // ## UNPATCHED ## - 
?RemoveDeferredCommand@CMcpxAPU@DirectSound@@QAEXPAUMCPX_DEFERRED_COMMAND@@@Z=$00082E90;unsigned char * const  // ## UNPATCHED ## - 
?RemoveElement@?$CMeshStatus@G$00$0PPPP@@@AAEXG@Z=$0007A389;unsigned char & const  // ## UNPATCHED ## - 
?RemoveElement@?$CMeshStatus@I$0A@$0?0@@AAEXI@Z=$0007A2B9;unsigned char & const  // ## UNPATCHED ## - 
?RemoveEntryList@@YGPAU_LIST_ENTRY@@PAU1@@Z=$00080720;GPAU_LIST_ENTRY const  // ## UNPATCHED ## - 
?RemoveFriend@CXo@@IAEJPAUXPRESENCE_FRIEND_LIST@@_KK@Z=$000B9AAD;unsigned int const  // ## UNPATCHED ## - 
?RemoveHead@CPacketQueue@@QAEPAVCPacket@@XZ=$000D221E;unsigned char * const  // ## UNPATCHED ## - 
?RemoveIdleVoice@CMcpxVoiceClient@DirectSound@@AAEXH@Z=$00084667;unsigned char & const  // ## UNPATCHED ## - 
?RemoveLRU@CTitleCache@@IAEJXZ=$000B71D2;unsigned int const  // ## UNPATCHED ## - 
?RemoveMutedUser@CXo@@IAEJPAUXPRESENCE_MUTE_LIST@@_K@Z=$000B885D;unsigned int const  // ## UNPATCHED ## - 
?RemoveStuckVoice@CMcpxVoiceClient@DirectSound@@AAEXXZ=$0008484E;unsigned char & const  // ## UNPATCHED ## - 
?ReorderFaceData@?$GXTri3Mesh@G$00$0PPPP@@@AAEJPAI0@Z=$0007CE84;unsigned char & const  // ## UNPATCHED ## - 
?ReorderFaceData@?$GXTri3Mesh@I$0A@$0?0@@AAEJPAI0@Z=$0007C5F5;unsigned char & const  // -- Patched -- 
?ReorderVertexData@?$GXTri3Mesh@G$00$0PPPP@@@AAEJPAIPAE@Z=$0007CD3F;unsigned char & const  // ## UNPATCHED ## - 
?ReorderVertexData@?$GXTri3Mesh@I$0A@$0?0@@AAEJPAIPAE@Z=$0007C4CE;unsigned char & const  // ## UNPATCHED ## - 
?ReportHardwareError@D3D@@YGXKKKK@Z=$0006E4D0; ?? . ?? .Z.GXKKKK const  // ## UNPATCHED ## - 
?ReserveInstMem@CMiniport@D3D@@AAEKK@Z=$0006EAD0;unsigned char & const  // ## UNPATCHED ## - 
?Reset@CAc97Channel@DirectSound@@QAEXXZ=$00087C75;unsigned char * const  // ## UNPATCHED ## - 
?Reset@CMcpxCore@DirectSound@@IAEXXZ=$000878AB;unsigned int const  // ## UNPATCHED ## - 
?Reset@CMcpxNotifier@DirectSound@@QAEXXZ=$00083FF1;unsigned char * const  // ## UNPATCHED ## - 
?ResetFriendlist@CXo@@IAEJPAUXPRESENCE_FRIEND_LIST@@GKPAPAEPAE@Z=$000B96BB;unsigned int const  // ## UNPATCHED ## - 
?ResetGlobalCounters@CMcpxCore@DirectSound@@IAEXXZ=$000873F1;unsigned int const  // ## UNPATCHED ## - 
?ResetMutelist@CXo@@IAEJPAUXPRESENCE_MUTE_LIST@@GKPAPAEPAE@Z=$000B874A;unsigned int const  // ## UNPATCHED ## - 
?Resize@?$GXTri3Mesh@G$00$0PPPP@@@QAEJII@Z=$0007B516;unsigned char * const  // ## UNPATCHED ## - 
?Resize@?$GXTri3Mesh@I$0A@$0?0@@QAEJII@Z=$0007AEC6;unsigned char * const  // -- Patched -- 
?ResizeDynamicArray@@YAHPAPAGIIPAI@Z=$00079440; ?? . ?? .Z.AHPAPAGIIPAI const  // ## UNPATCHED ## - 
?ResizeDynamicArray@@YAHPAPAIIIPAI@Z=$000794BD; ?? . ?? .Z.AHPAPAIIIPAI const  // ## UNPATCHED ## - 
?ResizeDynamicArray@@YAHPAPAV?$NeighborInfo@G@@IIPAI@Z=$0007953D;?ResizeDynamicArray // ## UNPATCHED ## - 
?Restore@CFpState@DirectSound@@QAEXXZ=$000807BF;unsigned char * const  // ## UNPATCHED ## - 
?ResortFriend@CXo@@IAEJPAUXPRESENCE_FRIEND_LIST@@K@Z=$000B95C3;unsigned int const  // ## UNPATCHED ## - 
?RestoreVertexShaders@D3D@@YGXPBKK@Z=$0006A510; ?? . ?? .Z.GXPBKK const  // ## UNPATCHED ## - 
?RevertLogonState@CXo@@IAEXPAUXONLINETASK_LOGON@@@Z=$000B3180;unsigned int const  // ## UNPATCHED ## - 
?RouteAdd@CXnIp@@AAEXUCIpAddr@@00GG@Z=$000CE210;unsigned char & const  // ## UNPATCHED ## - 
?RouteEntryOrphan@CXnIp@@AAEXPAVCRouteEntry@@@Z=$000CE14E;unsigned char & const  // ## UNPATCHED ## - 
?RouteListOrphan@CXnIp@@AAEXXZ=$000CEDBE;unsigned char & const  // ## UNPATCHED ## - 
?RouteLookup@CXnIp@@AAEPAVCRouteEntry@@UCIpAddr@@@Z=$000CE179;unsigned char & const  // ## UNPATCHED ## - 
?RouteRedirect@CXnIp@@AAEXUCIpAddr@@00@Z=$000CE32B;unsigned char & const  // ## UNPATCHED ## - 
?RouteRelease@CXnIp@@QAEXPAVCRouteEntry@@@Z=$000CDC3C;unsigned char * const  // ## UNPATCHED ## - 
?Run@CAc97Channel@DirectSound@@QAEXK@Z=$00087D35;unsigned char * const  // ## UNPATCHED ## - 
?SamplesToBytes@CMcpxVoiceClient@DirectSound@@IAEKK@Z=$0008329A;unsigned int volatile  // ## UNPATCHED ## - 
?Save@CFpState@DirectSound@@QAEXXZ=$0008079A;unsigned char * volatile  // ## UNPATCHED ## - 
?SaveMachineAccountConfig@CXo@@QAEHXZ=$000B2B5A;unsigned char * volatile  // ## UNPATCHED ## - 
?ScaleVector3@D3D@@YGXPAU_D3DVECTOR@@PBU2@M@Z=$0006C7F0;GXPAU_D3DVECTOR volatile  // ## UNPATCHED ## - 
?scanfrac@@YGKPADPAPADK@Z=$000C9A0E;anfrac // ## UNPATCHED ## - 
?ScheduleDeferredCommand@CMcpxAPU@DirectSound@@QAEHPAUMCPX_DEFERRED_COMMAND@@@Z=$0008306D;unsigned char * volatile  // ## UNPATCHED ## - 
?ScheduleDeferredCommandHigh@CMcpxAPU@DirectSound@@IAEHPAUMCPX_DEFERRED_COMMAND@@@Z=$00082F42;unsigned int volatile  // ## UNPATCHED ## - 
?SecRegEnqueue@CXnIp@@AAEXPAUCSecReg@1@PAVCPacket@@@Z=$000D046A;unsigned char & volatile  // ## UNPATCHED ## - 
?SecRegLookup@CXnIp@@AAEPAUCSecReg@1@K@Z=$000CE467;unsigned char & volatile  // -- Patched -- 
?SecRegProbe@CXnIp@@AAEXXZ=$000CF706;unsigned char & volatile  // -- Patched -- 
?SecRegSetFree@CXnIp@@AAEXPAUCSecReg@1@K@Z=$000CF682;unsigned char & volatile  // -- Patched -- 
?SecRegSetTerm@CXnIp@@AAEXPAUCSecReg@1@K@Z=$000CF59C;unsigned char & volatile  // -- Patched -- 
?SecRegSetTicks@CXnIp@@AAEXPAUCSecReg@1@@Z=$000CE4A4;unsigned char & volatile  // ## UNPATCHED ## - 
?SecRegShutdown@CXnIp@@QAEXH@Z=$000CF6A2;unsigned char * volatile  // ## UNPATCHED ## - 
?SecRegXmitQueue@CXnIp@@AAEXPAUCSecReg@1@@Z=$000D09C6;unsigned char & volatile  // ## UNPATCHED ## - 
?select@CXnSock@@QAEHHPAUfd_set@@00PBUtimeval@@@Z=$000CCCBC;CXnSock.lect // -- Patched -- 
?SendRecvBegin@CXo@@IAEJPAUXONLINETASK_SOCKIO@@H@Z=$000C547B;unsigned int volatile  // -- Patched -- 
?SendRecvContinue@CXo@@IAEJPAUXONLINETASK_HANDLE__@@@Z=$000C541A;unsigned int volatile  // ## UNPATCHED ## - 
?SendRecvInitializeContext@CXo@@IAEXIPAU_WSABUF@@KKPAXPAUXONLINETASK_SOCKIO@@@Z=$000C54F8;unsigned int volatile  // ## UNPATCHED ## - 
?ServiceAciInterrupt@CAc97Device@DirectSound@@IAEKXZ=$00087ED6;unsigned int volatile  // ## UNPATCHED ## - 
?ServiceAciInterruptDpc@CAc97Device@DirectSound@@IAEXXZ=$00087FAA;unsigned int volatile  // ## UNPATCHED ## - 
?ServiceDeferredCommand@CMcpxBuffer@DirectSound@@MAEXKK@Z=$00086284;float volatile  // ## UNPATCHED ## - 
?ServiceDeferredCommand@CMcpxStream@DirectSound@@MAEXKK@Z=$00083F69;float volatile  // ## UNPATCHED ## - 
?ServiceDeferredCommandsLow@CMcpxAPU@DirectSound@@IAEXXZ=$00082ACC;unsigned int volatile  // ## UNPATCHED ## - 
?ServiceFifoInterrupt@CMiniport@D3D@@AAEKXZ=$0006E860;unsigned char & volatile  // ## UNPATCHED ## - 
?ServiceGrInterrupt@CMiniport@D3D@@AAEKXZ=$0006E7B0;unsigned char & volatile  // ## UNPATCHED ## - 
?ServiceInterrupt@CAc97Channel@DirectSound@@IAEXXZ=$00087E7F;unsigned int volatile  // ## UNPATCHED ## - 
?ServiceQueuedFlips@CMiniport@D3D@@AAEKXZ=$0006E0D0;unsigned char & volatile  // -- Patched -- 
?ServiceTimerInterrupt@CMiniport@D3D@@AAEKXZ=$0006E2B0;unsigned char & volatile  // ## UNPATCHED ## - 
?ServiceVoiceInterrupt@CMcpxBuffer@DirectSound@@MAEHXZ=$00085B60;float volatile  // ## UNPATCHED ## - 
?ServiceVoiceInterrupt@CMcpxStream@DirectSound@@MAEHXZ=$00083C39;float volatile  // ## UNPATCHED ## - 
?SetBufferData@CDirectSoundBuffer@DirectSound@@QAGJPAXK@Z=$00081ABB;unsigned short * volatile  // ## UNPATCHED ## - 
?SetBufferData@CDirectSoundBufferSettings@DirectSound@@QAEJPAXK@Z=$00081A2F;unsigned char * volatile  // ## UNPATCHED ## - 
?SetClassSpecificType@IUsbDevice@@QAEXE@Z=$000E049D;unsigned char * volatile  // ## UNPATCHED ## - 
?SetCurrentPosition@CMcpxBuffer@DirectSound@@QAEJK@Z=$00086022;unsigned char * volatile  // -- Patched -- 
?SetCurrentTaskParams@CCacheTask@@QAEXW4XONLC_OPS@@PAE1PAUXONLC_CONTEXT@@H@Z=$000C202F;unsigned char * volatile  // ## UNPATCHED ## - 
?Unlock@D3DPalette@@QAGJXZ=$0006A8C0;unsigned short * const // ## UNPATCHED ## - 
?SetEffectImageLocations@CDirectSoundSettings@DirectSound@@QAEXPBU_DSEFFECTIMAGELOC@@@Z=$000808CE;unsigned char * volatile  // ## UNPATCHED ## - 
?SetEndOfFileNt@CXo@@IAEJPAXK@Z=$000C4FFF;unsigned int volatile  // ## UNPATCHED ## - 
?SetExtension@IUsbDevice@@QAEPAXPAX@Z=$000E048C;unsigned char * volatile  // ## UNPATCHED ## - 
?SetExternalPort@IUsbDevice@@QAEXXZ=$000E096C;unsigned char * volatile  // ## UNPATCHED ## - 
?SetExternalPortWithHub@IUsbDevice@@QAEXPAPAV1@I@Z=$000E092A;unsigned char * volatile  // ## UNPATCHED ## - 
?SetExternalPortWithoutHub@IUsbDevice@@QAEXPAPAV1@I@Z=$000E07C8;unsigned char * volatile  // ## UNPATCHED ## - 
?SetFence@D3D@@YGKK@Z=$0006C340; ?? . ?? .Z.GKK volatile  // ## UNPATCHED ## - 
?SetFirstCheckByte@CLocalCache@@AAEXPAVCSector@@PAVCAddress@@@Z=$000C27B5;unsigned char & volatile  // ## UNPATCHED ## - 
?SetFlagsAndOr@CSocket@@QAEXKK@Z=$000CBEFA;unsigned char * volatile  // ## UNPATCHED ## - 
?SetFormat@CDirectSoundVoiceSettings@DirectSound@@QAEHPBUtWAVEFORMATEX@@H@Z=$00081584;unsigned char * volatile  // ## UNPATCHED ## - 
?SetFormat@CMcpxBuffer@DirectSound@@UAEJXZ=$000861A3; ?? .AEJXZ volatile  // ## UNPATCHED ## - 
?SetFormat@CMcpxVoiceClient@DirectSound@@UAEJXZ=$00084107; ?? .AEJXZ volatile  // ## UNPATCHED ## - 
?SetFriendFlags@CXo@@IAEXPAUXPRESENCE_FRIEND_LIST@@_KKK@Z=$000B9B7B;unsigned int volatile  // ## UNPATCHED ## - 
?SetFriendInvite@CXo@@IAEXPAUXPRESENCE_FRIEND_LIST@@_KKUXNKID@@U_FILETIME@@@Z=$000B9BCD;unsigned int volatile  // ## UNPATCHED ## - 
?SetFrontEndState@CMcpxCore@DirectSound@@IAEXW4MCPX_FE_STATE@@@Z=$00087241;unsigned int volatile  // ## UNPATCHED ## - 
?SetHrtfHeadroom@CMcpxAPU@DirectSound@@QAEJK@Z=$00082B61;unsigned char * volatile  // ## UNPATCHED ## - 
?SetInitFlag@CXnHal@@QAEXK@Z=$000D91A1;unsigned char * volatile  // ## UNPATCHED ## - 
?SetInterruptState@CMcpxCore@DirectSound@@IAEXH@Z=$000871D3;unsigned int volatile  // ## UNPATCHED ## - 
?SetLastCheckByte@CLocalCache@@AAEXPAVCSector@@PAVCAddress@@@Z=$000C27FB;unsigned char & volatile  // ## UNPATCHED ## - 
?SetLightColors@D3D@@YGPCKPCKPBULight@1@KK@Z=$00070180;D3D.GPCKPCKPBULight volatile  // ## UNPATCHED ## - 
?SetMixBins@CDirectSoundVoiceSettings@DirectSound@@QAEXPBU_DSMIXBINS@@@Z=$00080A2D;unsigned char * volatile  // ## UNPATCHED ## - 
?SetMixBinHeadroom@CMcpxAPU@DirectSound@@QAEJK@Z=$00082B98;unsigned char * volatile  // ## UNPATCHED ## - 
?SetMode@CAc97Channel@DirectSound@@QAEXK@Z=$00087B0F;unsigned char * volatile  // ## UNPATCHED ## - 
?SetMultipassBuffer@CMcpxGPDspManager@DirectSound@@QAEXPAUMCPX_ALLOC_CONTEXT@@K@Z=$0008254F;unsigned char * volatile  // ## UNPATCHED ## - 
?SetNormal@DXCrackFVF@@QAEXPAXPAUD3DXVECTOR3@@@Z=$0007935E;unsigned char * volatile  // ## UNPATCHED ## - 
?SetNotificationPositions@CDirectSoundBufferSettings@DirectSound@@QAEJKPBU_DSBPOSITIONNOTIFY@@@Z=$00080B87;unsigned char * volatile  // ## UNPATCHED ## - 
?SetNotificationPositions@CMcpxBuffer@DirectSound@@QAEJXZ=$00085BA7;unsigned char * volatile  // -- Patched -- 
?SetPitch@CDirectSoundVoice@DirectSound@@QAGJJ@Z=$000816FF;unsigned short * volatile  // -- Patched -- 
?SetPlayRegion@CDirectSoundBufferSettings@DirectSound@@QAEXKK@Z=$00081723;unsigned char * volatile  // ## UNPATCHED ## - 
?SetPorts@CPacket@@QAEXUCIpPort@@0@Z=$000D2777;unsigned char * volatile  // ## UNPATCHED ## - 
?SetPosition@CAc97Channel@DirectSound@@IAEXK@Z=$00087B40;unsigned int volatile  // ## UNPATCHED ## - 
?SetPrdIndeces@CAc97Channel@DirectSound@@IAEXEEHH@Z=$00087A7F;unsigned int volatile  // ## UNPATCHED ## - 
?SetPrivLockState@CMcpxCore@DirectSound@@IAEXH@Z=$0008720A;unsigned int volatile  // ## UNPATCHED ## - 
?SetSceneAmbientAndMaterialEmission@D3D@@YGPCKPCKK@Z=$00070280; ?? . ?? .Z.GPCKPCKK volatile  // ## UNPATCHED ## - 
?setsockopt@CXnSock@@QAEHIHHPBDH@Z=$000CC902;CXnSock.tsockopt // -- Patched -- 
?SetSetupEngineState@CMcpxCore@DirectSound@@IAEXW4MCPX_SE_STATE@@@Z=$0008729C;unsigned int volatile  // ## UNPATCHED ## - 
?SetSpecularParameters@D3D@@YGPCKPCK@Z=$00070420; ?? . ?? .Z.GPCKPCK volatile  // ## UNPATCHED ## - 
?SetTileNoWait@D3D@@YGXKPBU_D3DTILE@@@Z=$00067E10;GXKPBU_D3DTILE volatile  // -- Patched -- 
?SetTimerAlarm@CMiniport@D3D@@AAEX_KH@Z=$0006EF98;unsigned char & volatile  // ## UNPATCHED ## - 
?SetTitleName@CTitleCache@@IAEJKGPBG@Z=$000B7374;unsigned int volatile  // ## UNPATCHED ## - 
?SetupAc97@CMcpxCore@DirectSound@@IAEJXZ=$0008711A;unsigned int volatile  // ## UNPATCHED ## - 
?SetupDSPs@CMcpxCore@DirectSound@@IAEXXZ=$00087480;unsigned int volatile  // ## UNPATCHED ## - 
?SetupEncodeProcessor@CMcpxCore@DirectSound@@IAEXXZ=$00086F97;unsigned int volatile  // ## UNPATCHED ## - 
?SetupFrontEndProcessor@CMcpxCore@DirectSound@@IAEXXZ=$00087564;unsigned int volatile  // ## UNPATCHED ## - 
?SetupGlobalProcessor@CMcpxCore@DirectSound@@IAEXXZ=$00086E6E;unsigned int volatile  // ## UNPATCHED ## - 
?SetupVoiceProcessor@CMcpxCore@DirectSound@@IAEXXZ=$00086D9D;unsigned int volatile  // ## UNPATCHED ## - 
?SetVideoMode@CMiniport@D3D@@QAEJKKKKW4_D3DFORMAT@@KK@Z=$0006DD13;unsigned char * volatile  // ## UNPATCHED ## - 
?SetVolume@CDirectSoundVoice@DirectSound@@QAGJJ@Z=$00080B64;unsigned short * volatile  // -- Patched -- 
?SetVolume@CMcpxVoiceClient@DirectSound@@QAEJXZ=$00084F13;unsigned char * volatile  // -- Patched -- 
?SetWorkAvailable@CTitleCache@@IAEXXZ=$000B71AC;unsigned int volatile  // ## UNPATCHED ## - 
?SGIStripReorder@?$GXTri3Mesh@G$00$0PPPP@@@AAEJPAV?$CMeshStatus@G$00$0PPPP@@@PAI1@Z=$0007E13C;unsigned char & volatile  // ## UNPATCHED ## - 
?SGIStripReorder@?$GXTri3Mesh@I$0A@$0?0@@AAEJPAV?$CMeshStatus@I$0A@$0?0@@PAI1@Z=$0007DD8E;unsigned char & volatile  // ## UNPATCHED ## - 
?shutdown@CXnSock@@QAEHIH@Z=$000CBFAA;CXnSock.utdown // -- Patched -- 
?ShutdownEngines@CMiniport@D3D@@QAEXXZ=$0006F4BF;unsigned char * volatile  // ## UNPATCHED ## - 
?ShutdownNotification@CMiniport@D3D@@SGXPAU_HAL_SHUTDOWN_REGISTRATION@@@Z=$0006E460;void volatile * volatile  // ## UNPATCHED ## - 
?SignOnlineUserStruct@CXo@@IAEXPAU_XC_ONLINE_USER_ACCOUNT_STRUCT@@PAE@Z=$000B2463;unsigned int volatile  // ## UNPATCHED ## - 
?SockAlloc@CXnSock@@AAEPAVCSocket@@HH@Z=$000CD811;unsigned char & volatile  // -- Patched -- 
?InitFromLabels@CDnsName@@QAEPAEPAE00@Z=$000D3B2E;CDnsName.tFromLabels // ## UNPATCHED ## - 
?InitFromString@CDnsName@@QAEHPBD@Z=$000D3AA8;CDnsName.tFromString // ## UNPATCHED ## - 
?InitGammaRamp@CMiniport@D3D@@AAEXK@Z=$0006EAE3;D3D.CMiniport.tGammaRamp // ## UNPATCHED ## - 
?InitHardware@CMiniport@D3D@@QAEHXZ=$0006F0AD;D3D.CMiniport.tHardware // ## UNPATCHED ## - 
?Initialize@CAc97Channel@DirectSound@@QAEJKP6GXPAX@Z0@Z=$00087D8F;DirectSound.CAc97Channel.tialize // ## UNPATCHED ## - 
?Initialize@CAc97Device@DirectSound@@QAEJK@Z=$000880EA;DirectSound.CAc97Device.tialize // ## UNPATCHED ## - 
?Initialize@CDirectSoundBuffer@DirectSound@@QAGJPBU_DSBUFFERDESC@@@Z=$00081DC7;DirectSound.CDirectSoundBuffer.tialize // ## UNPATCHED ## - 
?Initialize@CDirectSoundStream@DirectSound@@QAGJPBU_DSSTREAMDESC@@@Z=$00081BC7;DirectSound.CDirectSoundStream.tialize // ## UNPATCHED ## - 
?Initialize@CDirectSoundBufferSettings@DirectSound@@QAEJPBU_DSBUFFERDESC@@@Z=$00081D62;DirectSound.CDirectSoundBufferSettings.tialize // ## UNPATCHED ## - 
?Initialize@CDirectSoundVoice@DirectSound@@QAGXPAVCMcpxVoiceClient@2@PAVCDirectSoundVoiceSettings@2@@Z=$000816C0;DirectSound.CDirectSoundVoice.tialize // ## UNPATCHED ## - 
?Initialize@CDirectSoundStreamSettings@DirectSound@@QAEJPBU_DSSTREAMDESC@@@Z=$00081B69;DirectSound.CDirectSoundStreamSettings.tialize // ## UNPATCHED ## - 
?Initialize@CDirectSoundVoiceSettings@DirectSound@@QAEJKPBUtWAVEFORMATEX@@PBU_DSMIXBINS@@@Z=$00081974;DirectSound.CDirectSoundVoiceSettings.tialize // -- Patched -- 
?Initialize@CMcpxBufferSgeHeap@DirectSound@@QAEJG@Z=$00086606;DirectSound.CMcpxBufferSgeHeap.tialize // ## UNPATCHED ## - 
?Initialize@CMcpxDspScratchDma@DirectSound@@QAEXK@Z=$00086C70;DirectSound.CMcpxDspScratchDma.tialize // ## UNPATCHED ## - 
?Initialize@CMcpxCore@DirectSound@@QAEJXZ=$00087928;DirectSound.CMcpxCore.tialize // ## UNPATCHED ## - 
?Initialize@CMcpxVoiceClient@DirectSound@@UAEJH@Z=$0008400D;DirectSound.CMcpxVoiceClient.tialize // -- Patched -- 
?Initialize@CMcpxEPDspManager@DirectSound@@QAEXPAVCMcpxGPDspManager@2@@Z=$0008837F;DirectSound.CMcpxEPDspManager.tialize // ## UNPATCHED ## - 
?Initialize@CMcpxGPDspManager@DirectSound@@QAEXXZ=$000824C6;DirectSound.CMcpxGPDspManager.tialize // ## UNPATCHED ## - 
?Initialize@CMcpxNotifier@DirectSound@@QAEXKK@Z=$00084D62;DirectSound.CMcpxNotifier.tialize // ## UNPATCHED ## - 
?Initialize@CMcpxVoiceNotifier@DirectSound@@QAEXG@Z=$00084D80;DirectSound.CMcpxVoiceNotifier.tialize // ## UNPATCHED ## - 
?InitializeFirstBlock@CLocalCache@@QAEXXZ=$000C2BB7;CLocalCache.tializeFirstBlock // ## UNPATCHED ## - 
?InitializeFrameBuffers@CDevice@D3D@@QAEJPAU_D3DPRESENT_PARAMETERS_@@@Z=$0006B270;D3D.CDevice.tializeFrameBuffers // ## UNPATCHED ## - 
?InitializeKelvin@D3D@@YGXXZ=$0006AEA0;D3D.tializeKelvin // ## UNPATCHED ## - 
?InitializePushBuffer@CDevice@D3D@@QAEJXZ=$0006BF60;D3D.CDevice.tializePushBuffer // ## UNPATCHED ## - 
?InitializeVertexShaderFromFvf@D3D@@YGXPAUVertexShader@1@K@Z=$00069B30;D3D.tializeVertexShaderFromFvf // ## UNPATCHED ## - 
?InitializeSurface@D3D@@YGXPAUD3DSurface@@KKPAX@Z=$0006AAE0;D3D.tializeSurface // ## UNPATCHED ## - 
?InitSurfaceHeader@D3D@@YGXIIW4_D3DFORMAT@@PAUD3DSurface@@II@Z=$00071000;D3D.tSurfaceHeader // ## UNPATCHED ## - 
?InsertChild@IUsbDevice@@QAEXPAV1@@Z=$000E0724;IUsbDevice.ertChild // ## UNPATCHED ## - 
?InsertElement@?$CIndexQueue@G$0PPPP@@@QAEXG@Z=$0007A1D5;CIndexQueue<unsigned short,65535>.ertElement // ## UNPATCHED ## - 
?InsertElement@?$CIndexQueue@I$0?0@@QAEXI@Z=$0007A141;CIndexQueue<unsigned int,-1>.ertElement // ## UNPATCHED ## - 
?InsertHead@CPacketQueue@@QAEXPAV1@@Z=$000D28B8;CPacketQueue.ertHead // ## UNPATCHED ## - 
?InsertHead@CPacketQueue@@QAEXPAVCPacket@@@Z=$000D21ED;CPacketQueue.ertHead // ## UNPATCHED ## - 
?InsertRecvBuf@CSocket@@QAEXPAVCRecvBuf@@0@Z=$000D940A;CSocket.ertRecvBuf // ## UNPATCHED ## - 
?InsertTail@CPacketQueue@@QAEXPAVCPacket@@@Z=$000D2202;CPacketQueue.ertTail // ## UNPATCHED ## - 
?InternalAddRefSurface@D3D@@YGXPAUD3DResource@@@Z=$0006A8D0;D3D.ernalAddRefSurface // ## UNPATCHED ## - 
?InternalReleaseSurface@D3D@@YGXPAUD3DResource@@@Z=$0006AA70;D3D.ernalReleaseSurface // ## UNPATCHED ## - 
_HCD_DriverEntry@4=$000DD77F;HCD.DriverEntry // -- Patched -- 
_XInputClose@4=$000E482D;XInputClose // ## UNPATCHED ## - 
?Inverse4x4@D3D@@YGHPAU_D3DMATRIX@@PBU2@H@Z=$0006CB90;D3D.erse4x4 // ## UNPATCHED ## - 
?ioctlsocket@CXnSock@@QAEHIJPAK@Z=$000CC047;CXnSock.ctlsocket // -- Patched -- 
?IpCalcIvAtSeq@CXnIp@@AAEXPBEKPAE@Z=$000CDDC3;signed char // ## UNPATCHED ## - 
?IpConfig@CXnIp@@IAEHPBUXNetConfigParams@@K@Z=$000D758F;signed char // -- Patched -- 
?IpConfigComplete@CXnIp@@IAEXXZ=$000D6344;signed char // ## UNPATCHED ## - 
?IpConfigCopyString@CXnIp@@IAEHPADIPBDI@Z=$000D60E4;signed char // ## UNPATCHED ## - 
?IpConfigEqualString@CXnIp@@IAEHPADI0I@Z=$000D6140;signed char // ## UNPATCHED ## - 
?IpConfigFailed@CXnIp@@IAEXK@Z=$000D7B69;signed char // ## UNPATCHED ## - 
?IpConfigInit@CXnIp@@IAEJXZ=$000D910B;signed char // ## UNPATCHED ## - 
?IpConfigParamsUpdate@CXnIp@@QAEHPAUXNetConfigParams@@@Z=$000D6415;signed char // ## UNPATCHED ## - 
?IpConfigProbe@CXnIp@@QAEXXZ=$000D86A0;signed char // ## UNPATCHED ## - 
?IpConfigReset@CXnIp@@IAEXXZ=$000D74CA;signed char // -- Patched -- 
?IpConfigResetPppoe@CXnIp@@QAEXPAUCEnetAddr@@GG@Z=$000D6F35;signed char // ## UNPATCHED ## - 
?IpConfigSetPppoePhase@CXnIp@@IAEXE@Z=$000D730D;signed char // ## UNPATCHED ## - 
?IpConfigSetState@CXnIp@@IAEXEH@Z=$000D7099;signed char // -- Patched -- 
?IpConfigStatus@CXnIp@@IAEHPAUXNetConfigStatus@@@Z=$000D625A;signed char // ## UNPATCHED ## - 
?IpConfigTerm@CXnIp@@IAEXXZ=$000D60BD;signed char // ## UNPATCHED ## - 
?IpConfigTimer@CXnIp@@IAEXPAVCTimer@@@Z=$000D8725;signed char // ## UNPATCHED ## - 
?IpConfigUPnPUpdate@CXnIp@@QAEHPAUXNetConfigParams@@G@Z=$000D6560;signed char // ## UNPATCHED ## - 
?IpDecrypt@CXnIp@@QAEHPAVCPacket@@UCIpAddr@@@Z=$000CE656;char // ## UNPATCHED ## - 
?IpDnsLookup@CXnIp@@QAEHPBDPAXPAPAUXNDNS@@@Z=$000D401B;char // ## UNPATCHED ## - 
?IpDnsRelease@CXnIp@@QAEHPAUXNDNS@@@Z=$000D3C9A;char // ## UNPATCHED ## - 
?IpDnsSignal@CXnIp@@AAEXPAUCDnsReg@@H@Z=$000D3C69;char // ## UNPATCHED ## - 
?IpDnsTimer@CXnIp@@AAEXPAVCTimer@@@Z=$000D3FF3;char // ## UNPATCHED ## - 
?IpFillAndXmit@CXnIp@@QAEXPAVCPacket@@UCIpAddr@@EPAPAVCRouteEntry@@@Z=$000D0801;short // ## UNPATCHED ## - 
?IpFillHdr@CXnIp@@QAEXPAVCPacket@@UCIpAddr@@E@Z=$000CE0CC;short // ## UNPATCHED ## - 
?IpGetXnAddr@CXnIp@@QAEKPAUXNADDR@@@Z=$000CE770;unsigned short // -- Patched -- 
?IpQosBandwidth@CXnIp@@QAEKPAUCQosCli@1@PAUCQosCliInfo@1@H@Z=$000D4271;CXnIp.Bandwidth // ## UNPATCHED ## - 
?IpQosCliAlloc@CXnIp@@QAEPAUCQosCli@1@IIKKPAX@Z=$000D5B2A;CXnIp.CliAlloc // ## UNPATCHED ## - 
?IpQosCliComplete@CXnIp@@QAEXPAUCQosPkt@1@@Z=$000D5B17;CXnIp.CliComplete // ## UNPATCHED ## - 
?IpQosCliContinue@CXnIp@@QAEXPAUCQosCli@1@@Z=$000D51F2;CXnIp.CliContinue // -- Patched -- 
?IpQosCliFree@CXnIp@@QAEXPAUCQosCli@1@@Z=$000D509E;CXnIp.CliFree // -- Patched -- 
?IpQosCliInfoSetDone@CXnIp@@QAEXPAUCQosCli@1@PAUCQosCliInfo@1@@Z=$000D4C82;CXnIp.CliInfoSetDone // -- Patched -- 
?IpQosCliInfoSetState@CXnIp@@QAEXPAUCQosCli@1@PAUCQosCliInfo@1@E@Z=$000D512A;CXnIp.CliInfoSetState // ## UNPATCHED ## - 
?IpQosCliRecvKeyExQosResp@CXnIp@@QAEXPAVCPacket@@UCIpAddr@@UCIpPort@@PAUCKeyExQosResp@@I@Z=$000D5420;CXnIp.CliRecvKeyExQosResp // ## UNPATCHED ## - 
?IpQosCliTimer@CXnIp@@QAEXPAVCTimer@@@Z=$000D5B07;CXnIp.CliTimer // ## UNPATCHED ## - 
?IpQosLookup@CXnIp@@QAEHIQAPBUXNADDR@@QAPBUXNKID@@QAPBUXNKEY@@IQBUin_addr@@QBKIKKPAXPAPAUXNQOS@@@Z=$000D5D0F;CXnIp.Lookup // -- Patched -- 
?IpQosMedian@CXnIp@@QAEKPAKI@Z=$000D41D0;CXnIp.Median // ## UNPATCHED ## - 
?IpQosPktAlloc@CXnIp@@QAEHIP8CXnVoid@@AEXPAVCPacket@@@ZPAXPAPAUCQosPkt@1@@Z=$000D414F;CXnIp.PktAlloc // ## UNPATCHED ## - 
?IpQosPktFree@CXnIp@@QAEXPAUCQosPkt@1@@Z=$000D4DBB;CXnIp.PktFree // ## UNPATCHED ## - 
?IpQosQueryTsc@CXnIp@@QAEXPAT_LARGE_INTEGER@@@Z=$000D4188;CXnIp.QueryTsc // ## UNPATCHED ## - 
?IpQosRelease@CXnIp@@QAEHPAUXNQOS@@@Z=$000D51A1;CXnIp.Release // ## UNPATCHED ## - 
?IpQosShellSort@CXnIp@@QAEXPAKI@Z=$000D41F2;CXnIp.ShellSort // ## UNPATCHED ## - 
?IpQosSrvContinue@CXnIp@@QAEXPAUCQosSrv@1@@Z=$000D46E0;CXnIp.SrvContinue // ## UNPATCHED ## - 
?IpQosSrvFree@CXnIp@@QAEXPAUCQosSrv@1@@Z=$000D5067;CXnIp.SrvFree // ## UNPATCHED ## - 
?IpQosSrvRecvKeyExQosInit@CXnIp@@QAEXPAVCPacket@@UCIpAddr@@UCIpPort@@PAUCKeyExQosInit@@I@Z=$000D4DDF;CXnIp.SrvRecvKeyExQosInit // ## UNPATCHED ## - 
?IpQosSrvXmitKeyExQosResp@CXnIp@@QAEXPAUCQosSrv@1@PAUCQosSrvInfo@1@@Z=$000D4438;CXnIp.SrvXmitKeyExQosResp // ## UNPATCHED ## - 
?IpQosTscToUsec@CXnIp@@QAEKPAT_LARGE_INTEGER@@0@Z=$000D41A8;CXnIp.TscToUsec // ## UNPATCHED ## - 
?IpRecv@CXnIp@@IAEXPAVCPacket@@@Z=$000D1C59;CXnIp.v // ## UNPATCHED ## - 
?IpRecvArp@CXnIp@@IAEXPAUCEnetAddr@@@Z=$000D7458;CXnIp.vArp // ## UNPATCHED ## - 
?IpRecvAuth@CXnIp@@IAEXPAVCPacket@@G@Z=$000D84E3;CXnIp.vAuth // ## UNPATCHED ## - 
?IpRecvDhcp@CXnIp@@IAEXPAVCPacket@@PAUCUdpHdr@@I@Z=$000D7BB9;CXnIp.vDhcp // ## UNPATCHED ## - 
?IpRecvDns@CXnIp@@AAEXPAVCPacket@@PAUCUdpHdr@@I@Z=$000D3E0E;CXnIp.vDns // ## UNPATCHED ## - 
?IpRecvIcmp@CXnIp@@AAEXPAVCPacket@@PAUCIpHdr@@PAXI@Z=$000DC62C;CXnIp.vIcmp // -- Patched -- 
?IpRecvLcp@CXnIp@@IAEXPAVCPacket@@G@Z=$000D804A;CXnIp.vLcp // ## UNPATCHED ## - 
?IpRecvLcpOpt@CXnIp@@IAEIPAEGEPAPAEH@Z=$000D6AF2;CXnIp.vLcpOpt // ## UNPATCHED ## - 
?IpRecvPppoe@CXnIp@@IAEXPAVCPacket@@I@Z=$000D89CE;CXnIp.vPppoe // -- Patched -- 
?IpRecvTcp@CXnIp@@AAEXPAVCPacket@@PAUCIpHdr@@PAUCTcpHdr@@I@Z=$000CDFEA;CXnIp.vTcp // -- Patched -- 
?IpRecvUdp@CXnIp@@AAEXPAVCPacket@@PAUCIpHdr@@PAUCUdpHdr@@I@Z=$000D1B2B;CXnIp.vUdp // -- Patched -- 
?IpSetEventTimer@CXnIp@@QAEXPAUCEventTimer@@PAXK@Z=$000CEACB;CXnIp.EventTimer // ## UNPATCHED ## - 
?IpStop@CXnIp@@IAEXXZ=$000CFD0B;CXnIp.p // ## UNPATCHED ## - 
?IpUnreachable@CXnIp@@QAEHUCIpAddr@@@Z=$000CE60D;CXnIp.nreachable // ## UNPATCHED ## - 
?IpUnregisterKey@CXnIp@@QAEHPBUXNKID@@@Z=$000D0096;CXnIp.nregisterKey // ## UNPATCHED ## - 
?IpXmit@CXnIp@@QAEXPAVCPacket@@PAPAVCRouteEntry@@@Z=$000D075D;CXnIp.mit // -- Patched -- 
?IpXmitAuth@CXnIp@@IAEXXZ=$000D6EAB;CXnIp.mitAuth // ## UNPATCHED ## - 
?IpXmitDhcp@CXnIp@@IAEXXZ=$000D65EC;CXnIp.mitDhcp // ## UNPATCHED ## - 
?IpXmitDns@CXnIp@@AAEXPAUCDnsReg@@@Z=$000D3D0D;CXnIp.mitDns // ## UNPATCHED ## - 
?IpXmitIp@CXnIp@@AAEXPAVCPacket@@PAPAVCRouteEntry@@@Z=$000CEB8F;CXnIp.mitIp // -- Patched -- 
?IpXmitKeyEx@CXnIp@@AAEXPAUCSecReg@1@@Z=$000D03F0;CXnIp.mitKeyEx // -- Patched -- 
?IpXmitLcp@CXnIp@@IAEXGEEPAEI0I0I0IPAUCEnetAddr@@GG@Z=$000D6D5F;CXnIp.mitLcp // ## UNPATCHED ## - 
?IpXmitLcp@CXnIp@@IAEXXZ=$000D6FBC;CXnIp.mitLcp // ## UNPATCHED ## - 
?IpXmitPppoe@CXnIp@@IAEXXZ=$000D68D0;CXnIp.mitPppoe // ## UNPATCHED ## - 
?IpXmitPppoePadt@CXnIp@@IAEXPAUCEnetAddr@@GG@Z=$000D6A7D;CXnIp.mitPppoePadt // ## UNPATCHED ## - 
?IpXmitSecMsg@CXnIp@@AAEXPAUCSecReg@1@GPAXI1I@Z=$000CF2B8;CXnIp.mitSecMsg // ## UNPATCHED ## - 
?IpXmitSecMsgDelete@CXnIp@@AAEXPAUCSecReg@1@K@Z=$000CF365;CXnIp.mitSecMsgDelete // ## UNPATCHED ## - 
?IpXmitXsp@CXnIp@@AAEXPAVCPacket@@PAUCSecReg@1@PAPAVCRouteEntry@@@Z=$000CEDE7;CXnIp.mitXsp // -- Patched -- 
?IsCacheCorrupted@CLocalCache@@QAEJPAH@Z=$000C2E1B;signed char // ## UNPATCHED ## - 
?IsCompressedD3DFORMAT@D3D@@YG_NW4_D3DFORMAT@@@Z=$0006D250;signed char // ## UNPATCHED ## - 
?IsDigit@@YGHD@Z=$000C98B8;char // ## UNPATCHED ## - 
?IsEqual@CDnsName@@QAEHPAU1@@Z=$000D3C1C;unsigned char // ## UNPATCHED ## - 
?IsFlipPending@CMiniport@D3D@@QAEHXZ=$0006DF80;short // ## UNPATCHED ## - 
?IsFriendListConsistant@CXo@@IAEHPBUXPRESENCE_FRIEND_LIST@@H@Z=$000B88D3;short // ## UNPATCHED ## - 
?IsMulticast@CIpAddr@@QBEHXZ=$00033B5A;float // ## UNPATCHED ## - 
?IsMuteListConsistant@CXo@@IAEHPBUXPRESENCE_MUTE_LIST@@@Z=$000B8948;float // ## UNPATCHED ## - 
?Isr@CMiniport@D3D@@SGEPAU_KINTERRUPT@@PAX@Z=$0006DFB0;D3D.CMiniport. // ## UNPATCHED ## - 
?IsResourceSetInDevice@D3D@@YGHPAUD3DResource@@@Z=$0006A890;D3D.ourceSetInDevice // ## UNPATCHED ## - 
?IsValidUnicast@CIpAddr@@QBEHXZ=$000D2B80;CIpAddr.alidUnicast // ## UNPATCHED ## - 
?JBInvSqrt@D3D@@YGMM@Z=$0006CA90;D3D.Sqrt // ## UNPATCHED ## - 
?KerbAddClientVersionPreAuth@@YGJPAVCScratchMemoryAllocator@@PBUKERB_ENCRYPTION_KEY@@KPAPAUKERB_KDC_REQUEST_preauth_data_s@@@Z=$000C5C36;rbAddClientVersionPreAuth volatile  // ## UNPATCHED ## - 
?KerbAddCompoundIdentityPreAuth@@YGJPAVCScratchMemoryAllocator@@PAUXKERB_TGT_CONTEXT@@PAPAUKERB_KDC_REQUEST_preauth_data_s@@@Z=$000C653E;rbAddCompoundIdentityPreAuth volatile  // ## UNPATCHED ## - 
?KerbAddEchoPreAuth@@YGJPAVCScratchMemoryAllocator@@KPAEPAPAUKERB_KDC_REQUEST_preauth_data_s@@@Z=$000C5BA7;rbAddEchoPreAuth volatile  // ## UNPATCHED ## - 
?KerbAddPacRequestPreAuth@@YGJPAVCScratchMemoryAllocator@@HPAPAUKERB_KDC_REQUEST_preauth_data_s@@@Z=$000C649B;rbAddPacRequestPreAuth volatile  // ## UNPATCHED ## - 
?KerbAddPrePreAuth@@YGJPAVCScratchMemoryAllocator@@PADPAUKERB_ENCRYPTION_KEY@@PAPAUKERB_KDC_REQUEST_preauth_data_s@@@Z=$000C5A7E;rbAddPrePreAuth volatile  // ## UNPATCHED ## - 
?KerbAddTimestampPreAuth@@YGJPAVCScratchMemoryAllocator@@PAUKERB_ENCRYPTION_KEY@@PAT_LARGE_INTEGER@@PAPAUKERB_KDC_REQUEST_preauth_data_s@@@Z=$000C690F;rbAddTimestampPreAuth volatile  // ## UNPATCHED ## - 
?KerbAddXboxServiceRequestPreAuth@@YGJPAVCScratchMemoryAllocator@@PBUKERB_ENCRYPTION_KEY@@PBUXKERB_TGT_CONTEXT@@KPBUXKERB_SERVICE_CONTEXT@@PAPAUKERB_KDC_REQUEST_preauth_data_s@@@Z=$000C6AE5;rbAddXboxServiceRequestPreAuth volatile  // ## UNPATCHED ## - 
?KerbComputeCompoundIdentityKey@@YGXPBUKERB_ENCRYPTION_KEY@@PBUXKERB_TGT_CONTEXT@@PAE@Z=$000C5D61;rbComputeCompoundIdentityKey volatile  // ## UNPATCHED ## - 
?KerbComputeKdcRequestNonceHmacKey@@YGXPAVCScratchMemoryAllocator@@PBUKERB_ENCRYPTION_KEY@@KPAE@Z=$000C5A00;rbComputeKdcRequestNonceHmacKey volatile  // ## UNPATCHED ## - 
?KerbComputeRequestBodyChecksum@@YGJPAVCScratchMemoryAllocator@@PAUKERB_KDC_REQUEST_BODY@@PAUKERB_CHECKSUM@@@Z=$000C61EB;rbComputeRequestBodyChecksum volatile  // ## UNPATCHED ## - 
?KerbConstructPrincipalName@@YGJPAVCScratchMemoryAllocator@@PAUKERB_PRINCIPAL_NAME@@KPAD2@Z=$000C603D;rbConstructPrincipalName volatile  // ## UNPATCHED ## - 
?KerbConvertGeneralizedTimeToLargeInt@@YGXPAT_LARGE_INTEGER@@PAUtagASN1generalizedtime_t@@H@Z=$000C556B;rbConvertGeneralizedTimeToLargeInt volatile  // ## UNPATCHED ## - 
?KerbConvertLargeIntToGeneralizedTime@@YGXPAUtagASN1generalizedtime_t@@PAJPAT_LARGE_INTEGER@@@Z=$000C561F;rbConvertLargeIntToGeneralizedTime volatile  // ## UNPATCHED ## - 
?KerbConvertUlongToFlagUlong@@YGKK@Z=$000C56F3;rbConvertUlongToFlagUlong volatile  // -- Patched -- 
?ReverseEndian@@YGKK@Z=$000DEA88; ?? . ?? .Z.GKK const  // ## UNPATCHED ## - 
?KerbCreateApRequest@@YGJPAVCScratchMemoryAllocator@@PAD1PBUKERB_ENCRYPTION_KEY@@KPAT_LARGE_INTEGER@@PBUKERB_TICKET@@KPBUKERB_CHECKSUM@@EPAKPAPAE@Z=$000C78F1;rbCreateApRequest volatile  // ## UNPATCHED ## - 
?KerbCreateAuthenticator@@YGJPAVCScratchMemoryAllocator@@PBUKERB_ENCRYPTION_KEY@@KKPAT_LARGE_INTEGER@@PAD3PBUKERB_CHECKSUM@@EPAUKERB_ENCRYPTED_DATA@@@Z=$000C780A;rbCreateAuthenticator volatile  // ## UNPATCHED ## - 
?KerbDecryptDataEx@@YGJPAVCScratchMemoryAllocator@@PAUKERB_ENCRYPTED_DATA@@PAUKERB_ENCRYPTION_KEY@@KPAKPAE@Z=$000C6007;rbDecryptDataEx volatile  // ## UNPATCHED ## - 
?KerbEncryptDataEx@@YGJPAVCScratchMemoryAllocator@@PAUKERB_ENCRYPTED_DATA@@KPAEKKPBUKERB_ENCRYPTION_KEY@@@Z=$000C68D0;rbEncryptDataEx volatile  // ## UNPATCHED ## - 
?KerbFindPreAuthDataEntry@@YGPAUKERB_PA_DATA@@KPAUKERB_KDC_REQUEST_preauth_data_s@@@Z=$000C554A;rbFindPreAuthDataEntry volatile  // ## UNPATCHED ## - 
?KerbGetCurrentTime@@YGXPAT_LARGE_INTEGER@@@Z=$000C5713;rbGetCurrentTime volatile  // ## UNPATCHED ## - 
?KerbInitAsn@@YGJPAVCScratchMemoryAllocator@@PAPAUASN1encoding_s@@PAPAUASN1decoding_s@@@Z=$000C5DE4;rbInitAsn volatile  // -- Patched -- 
?KerbMultiStringToPrincipalName@@YGJPAVCScratchMemoryAllocator@@PADPAUKERB_PRINCIPAL_NAME@@@Z=$000C60A9;rbMultiStringToPrincipalName volatile  // ## UNPATCHED ## - 
?KerbPackData@@YGJPAVCScratchMemoryAllocator@@PAXKPAKPAPAE@Z=$000C5E25;rbPackData volatile  // ## UNPATCHED ## - 
?KerbPrincipalNameToMultiString@@YGJPAUKERB_PRINCIPAL_NAME@@KPAD@Z=$000C576D;rbPrincipalNameToMultiString volatile  // ## UNPATCHED ## - 
?KerbTermAsn@@YGXPAUASN1encoding_s@@PAUASN1decoding_s@@@Z=$000C56CE;rbTermAsn volatile  // ## UNPATCHED ## - 
?KerbUnpackData@@YGJPAVCScratchMemoryAllocator@@PAEKKPAPAX@Z=$000C5F9F;rbUnpackData volatile  // ## UNPATCHED ## - 
?KerbUnpackKdcReplyBody@@YGJPAVCScratchMemoryAllocator@@PAUKERB_ENCRYPTED_DATA@@PAUKERB_ENCRYPTION_KEY@@KPAPAUKERB_ENCRYPTED_KDC_REPLY@@@Z=$000C6838;rbUnpackKdcReplyBody volatile  // ## UNPATCHED ## - 
?KerbUpdateCurrentTime@@YGXT_LARGE_INTEGER@@@Z=$000C575D;rbUpdateCurrentTime volatile  // ## UNPATCHED ## - 
?KerbVerifyAccountCreationPreAuth@@YGJPAVCScratchMemoryAllocator@@PAUKERB_PA_DATA@@PBUKERB_ENCRYPTION_KEY@@PAUXKERB_TGT_CONTEXT@@@Z=$000C62C6;rbVerifyAccountCreationPreAuth volatile  // -- Patched -- 
?KerbVerifyServiceAddressPreAuth@@YGJPAVCScratchMemoryAllocator@@PAUKERB_PA_DATA@@PBUKERB_ENCRYPTION_KEY@@PAUXKERB_SERVICE_CONTEXT@@PAU_XKERB_PA_XBOX_SERVICE_ADDRESS@@@Z=$000C63AF;rbVerifyServiceAddressPreAuth volatile  // ## UNPATCHED ## - 
?KeyRegLookup@CXnIp@@AAEPAUCKeyReg@1@PBUXNKID@@@Z=$000CDC6C;CXnIp.yRegLookup volatile  // ## UNPATCHED ## - 
?KRB5_Module_Startup@@YGXPAUtagASN1module_t@@@Z=$000BEFCB;_Module_Startup const * volatile  // ## UNPATCHED ## - 
?KeyRegShaDesKeys@CXnIp@@AAEXPBUXNKID@@PBUXNKEY@@PAEI2I@Z=$000CDC9F;CXnIp.yRegShaDesKeys volatile  // ## UNPATCHED ## - 
?KickOff@CDevice@D3D@@QAEXXZ=$0006C1F0;D3D.CDevice.ckOff volatile  // -- Patched -- 
?KickOffAndWaitForIdle@D3D@@YGXXZ=$0006C710;D3D.ckOffAndWaitForIdle volatile  // -- Patched -- 
?LazySetPointParams@D3D@@YGXPAVCDevice@1@@Z=$0006F720;D3D.zySetPointParams const volatile  // ## UNPATCHED ## - 
?LazySetShaderStageProgram@D3D@@YGXPAVCDevice@1@@Z=$0006F890;D3D.zySetShaderStageProgram const volatile  // ## UNPATCHED ## - 
?LazySetSpecFogCombiner@D3D@@YGXPAVCDevice@1@@Z=$0006FBE0;D3D.zySetSpecFogCombiner const volatile  // ## UNPATCHED ## - 
?LazySetState@D3D@@YGXXZ=$00070AA0;D3D.zySetState const volatile  // -- Patched -- 
?LazySetStateUP@CDevice@D3D@@QAEXXZ=$00070CC0;D3D.CDevice.zySetStateUP const volatile  // ## UNPATCHED ## - 
?LazySetStateVB@CDevice@D3D@@QAEXK@Z=$00070B20;D3D.CDevice.zySetStateVB const volatile  // ## UNPATCHED ## - 
?LazySetTextureState@D3D@@YGXPAVCDevice@1@K@Z=$0006F9F0;D3D.zySetTextureState const volatile  // ## UNPATCHED ## - 
?LoadEngines@CMiniport@D3D@@AAEHXZ=$0006ECA9;D3D.CMiniport.adEngines const volatile  // ## UNPATCHED ## - 
?Lock@CDirectSoundBuffer@DirectSound@@QAGJKKPAPAXPAK01K@Z=$00080E1F;DirectSound.CDirectSoundBuffer.ck const volatile  // ## UNPATCHED ## - 
?LoadHrtfFilter@CMcpxVoiceClient@DirectSound@@IAEXXZ=$00084A77;DirectSound.CMcpxVoiceClient.adHrtfFilter const volatile  // -- Patched -- 
?Lock@CSocket@@SGPAV1@I@Z=$000CBE5B;CSocket.ck const volatile  // ## UNPATCHED ## - 
?Lock2DSurface@PixelJar@D3D@@YGXPAUD3DPixelContainer@@W4_D3DCUBEMAP_FACES@@IPAU_D3DLOCKED_RECT@@PBUtagRECT@@K@Z=$0006D8C0;D3D.PixelJar.ck2DSurface const volatile  // -- Patched -- 
?LockAttributeBuffer@?$GXTri3Mesh@G$00$0PPPP@@@UAGJKPAPAK@Z=$00079167;GXTri3Mesh<unsigned short,1,65535>.ckAttributeBuffer const volatile  // ## UNPATCHED ## - 
?LockIndexBuffer@?$GXTri3Mesh@I$0A@$0?0@@UAGJKPAPAE@Z=$0007AAB1;GXTri3Mesh<unsigned int,0,-1>.ckIndexBuffer const volatile  // ## UNPATCHED ## - 
?LockVertexBuffer@?$GXTri3Mesh@I$0A@$0?0@@UAGJKPAPAE@Z=$0007A9DF;GXTri3Mesh<unsigned int,0,-1>.ckVertexBuffer const volatile  // ## UNPATCHED ## - 
?Log@D3D@@YGMM@Z=$0006D170;D3D.g const volatile  // ## UNPATCHED ## - 
?Log2@D3D@@YIKK@Z=$0006D180;D3D.g2 const volatile  // ## UNPATCHED ## - 
?Lookup@CTitleCache@@QAEJKGKPAG@Z=$000B744E;CTitleCache.okup const volatile  // ## UNPATCHED ## - 
?Lower@CIrql@DirectSound@@QAEXXZ=$00080783;DirectSound.CIrql.wer const volatile  // ## UNPATCHED ## - 
?lsb@Math@DirectSound@@YIII@Z=$0008080D;DirectSound.Math.b // ## UNPATCHED ## - 
?MakeRequestedSpace@D3D@@YGPCKKK@Z=$0006C530;D3D.eRequestedSpace // -- Patched -- 
_D3DDevice_MakeSpace@0=$0006C6B0;D3DDevice.MakeSpace // ## UNPATCHED ## - 
?MapBuffer@CMcpxBufferSgeHeap@DirectSound@@KGXKPAXK@Z=$00086783;DirectSound.CMcpxBufferSgeHeap.Buffer // ## UNPATCHED ## - 
?MapToLinearD3DFORMAT@D3D@@YG?AW4_D3DFORMAT@@W42@@Z=$0006D190;D3D.ToLinearD3DFORMAT // ## UNPATCHED ## - 
?MapEffectsBuffer@CMcpxBuffer@DirectSound@@IAEXXZ=$00085DA3;DirectSound.CMcpxBuffer.EffectsBuffer // -- Patched -- 
?MapRegisters@CMiniport@D3D@@AAEHXZ=$0006EBBA;D3D.CMiniport.Registers // ## UNPATCHED ## - 
?MapTransfer@CMcpxCore@DirectSound@@SGKPAPAXPAK1@Z=$00087375;DirectSound.CMcpxCore.Transfer // ## UNPATCHED ## - 
?MarkAsProcessed@?$CMeshStatus@G$00$0PPPP@@@QAEXG@Z=$0007D2DD;CMeshStatus<unsigned short,1,65535>.kAsProcessed // ## UNPATCHED ## - 
?MatchesXMLStringWithoutNamespace@CXo@@IAEHQBD0QBUtagPARSEXML_STACKENTRY@@QBU_PARSEXML_SUBELEMENT@@K@Z=$000C83B3;CXo.chesXMLStringWithoutNamespace // ## UNPATCHED ## - 
?MarkAsProcessed@?$CMeshStatus@I$0A@$0?0@@QAEXI@Z=$0007D0A4;CMeshStatus<unsigned int,0,-1>.kAsProcessed // ## UNPATCHED ## - 
?MatrixProduct4x4@D3D@@YGXPAU_D3DMATRIX@@PBU2@1@Z=$0006C8B0;D3D.rixProduct4x4 // ## UNPATCHED ## - 
?mBToLinear@@YGMJ@Z=$000862F7; ??  // ## UNPATCHED ## - 
?md5Hmac@@YGEPBEK0K0KPAE@Z=$000C5804;?md5Hmac // ## UNPATCHED ## - 
?MemAlloc@CMemoryManager@DirectSound@@SGPAXW4DSOUND_POOL_TAG@@KH@Z=$000822B5;DirectSound.CMemoryManager.Alloc // ## UNPATCHED ## - 
?MemFree@CMemoryManager@DirectSound@@SGXPAX@Z=$0008231D;DirectSound.CMemoryManager.Free // ## UNPATCHED ## - 
?MessageCreateContext@CXo@@IAEJPAPAUXONMESSAGE_EXTENDED_HANDLE@@KKPAEPAX@Z=$000BB874;CXo.sageCreateContext // ## UNPATCHED ## - 
?MessageTaskContinue@CXo@@IAEJPAUXONLINETASK_HANDLE__@@@Z=$000BB829;CXo.sageTaskContinue // ## UNPATCHED ## - 
?MessageTaskParseResults@CXo@@IAEJPAUXONLINETASK_HANDLE__@@@Z=$000BB71E;CXo.sageTaskParseResults // ## UNPATCHED ## - 
?MoveEntryTailList@@YGPAU_LIST_ENTRY@@PAU1@0@Z=$000825A7;eEntryTailList // ## UNPATCHED ## - 
?MoveHeadTailList@@YGPAU_LIST_ENTRY@@PAU1@0@Z=$00083248;eHeadTailList // ## UNPATCHED ## - 
?msr_MD5Final@@YGHPAUmsr_MD5_CTX@@@Z=$000DCB48;r_MD5Final // -- Patched -- 
?msr_MD5Init@@YGHPAUmsr_MD5_CTX@@@Z=$000DC9DC;r_MD5Init // -- Patched -- 
?msr_MD5Update@@YGHPAUmsr_MD5_CTX@@PBEK@Z=$000DCA1A;r_MD5Update // -- Patched -- 
?MU_AcquireDeviceObject@@YGPAU_MU_DEVICE_EXTENSION@@XZ=$000DE100;UNKNOWN // ## UNPATCHED ## - 
?MU_CbwCompletion@@YGXPAT_URB@@PAX@Z=$000E0DC8;UNKNOWN // ## UNPATCHED ## - 
?MU_CloseEndpointCompletion@@YGXPAT_URB@@PAX@Z=$000DE1F6;UNKNOWN // ## UNPATCHED ## - 
?MU_CswCompletion@@YGXPAT_URB@@PAX@Z=$000E0AF8;UNKNOWN // ## UNPATCHED ## - 
?MU_DataCompletion@@YGXPAT_URB@@PAX@Z=$000E0C05;__int8 // ## UNPATCHED ## - 
?MU_DiskIoComplete@@YGXPAU_MU_DEVICE_EXTENSION@@J@Z=$000DEB02;__int8 // ## UNPATCHED ## - 
?MU_DiskReadCapacityCompletion@@YGXPAU_MU_DEVICE_EXTENSION@@J@Z=$000DEBB5;__int8 // ## UNPATCHED ## - 
?MU_DiskReadComplete@@YGXPAU_MU_DEVICE_EXTENSION@@J@Z=$000DEE1C;__int8 // ## UNPATCHED ## - 
?MU_DiskStartPartialWrite@@YGXPAU_MU_DEVICE_EXTENSION@@J@Z=$000DF2A8;__int8 // ## UNPATCHED ## - 
?MU_DiskWriteBuildMiddlePartialRequest@@YGXPAU_MU_DEVICE_EXTENSION@@J@Z=$000DF0D0;__int8 // ## UNPATCHED ## - 
?MU_DiskWriteBuildPartialRequest@@YGXPAU_MU_DEVICE_EXTENSION@@J@Z=$000DEEEA;__int8 // ## UNPATCHED ## - 
?MU_DiskWriteStartNextPartialRequest@@YGXXZ=$000DEB42;__int8 // ## UNPATCHED ## - 
?MU_fCbwTransfer@@YIXPAU_MU_DEVICE_EXTENSION@@@Z=$000E0E30;UNKNOWN // ## UNPATCHED ## - 
?MU_fCloseEndpoints@@YIXPAU_MU_DEVICE_EXTENSION@@@Z=$000DE2C8;UNKNOWN // ## UNPATCHED ## - 
?MU_fCswTransfer@@YIXPAU_MU_DEVICE_EXTENSION@@@Z=$000E0B7C;UNKNOWN // ## UNPATCHED ## - 
?MU_fDataTransfer@@YIXPAT_URB@@PAU_MU_DEVICE_EXTENSION@@@Z=$000E0D02;UNKNOWN // ## UNPATCHED ## - 
?MU_fDiskDeviceControl@@YGXPAU_MU_DEVICE_EXTENSION@@PAU_IRP@@@Z=$000DF34A;UNKNOWN // ## UNPATCHED ## - 
?MU_fDiskReadDriveCapacity@@YIJPAU_MU_DEVICE_EXTENSION@@PAU_IRP@@@Z=$000DF24B;UNKNOWN // ## UNPATCHED ## - 
?MU_fDiskReadWrite@@YIXPAU_MU_DEVICE_EXTENSION@@PAU_IRP@@@Z=$000DF41A;UNKNOWN // ## UNPATCHED ## - 
?MU_fDiskVerify@@YIXPAU_MU_DEVICE_EXTENSION@@PAU_IRP@@@Z=$000DED9B;UNKNOWN // ## UNPATCHED ## - 
?MU_fMarkWriteBufferCorrupt@@YIXPAU_MU_REQUEST_BLOCK@@@Z=$000DEB5E;UNKNOWN // ## UNPATCHED ## - 
?MU_fMrbErrorHandler@@YIXPAU_MU_DEVICE_EXTENSION@@J@Z=$000E09F2;UNKNOWN // ## UNPATCHED ## - 
?MU_fStartMrb@@YIXPAU_MU_DEVICE_EXTENSION@@@Z=$000E10D9;UNKNOWN // ## UNPATCHED ## - 
?MU_InternalIo@@YGJPAU_DEVICE_OBJECT@@PAU_IRP@@@Z=$000DEAA8;unsigned __int32 // ## UNPATCHED ## - 
?MU_MrbTimeout@@YGXPAU_KDPC@@PAX11@Z=$000E09B7;unsigned __int128 // ## UNPATCHED ## - 
?MU_ReleaseDeviceObject@@YGXPAU_MU_DEVICE_EXTENSION@@@Z=$000DE11B;UNKNOWN // ## UNPATCHED ## - 
?MU_ResetDeviceCompletionRoutine@@YGXPAT_URB@@PAX@Z=$000E0ED9;UNKNOWN // ## UNPATCHED ## - 
?MU_StartIo@@YGXPAU_DEVICE_OBJECT@@PAU_IRP@@@Z=$000DF5AA;UNKNOWN // ## UNPATCHED ## - 
?My_lstrlenA@@YGHPBD@Z=$000C9867;UNKNOWN // ## UNPATCHED ## - 
?NicFlush@CXnNic@@IAEXXZ=$000D33C7;CXnNic.Flush const  // ## UNPATCHED ## - 
?NicMiiInterrupt@CXnNic@@AAEXKH@Z=$000D2E80;CXnNic.MiiInterrupt const  // ## UNPATCHED ## - 
?NicProcessDpc@CXnNic@@AAEXXZ=$000D35D0;CXnNic.ProcessDpc const  // -- Patched -- 
?NicProcessIsr@CXnNic@@AAEEXZ=$000D2E67;CXnNic.ProcessIsr const  // ## UNPATCHED ## - 
?NicRecvInterrupt@CXnNic@@AAEXXZ=$000D2FA2;CXnNic.RecvInterrupt const  // ## UNPATCHED ## - 
?NicReset@CXnNic@@AAEXXZ=$000D2DE9;CXnNic.Reset const  // ## UNPATCHED ## - 
?NicSetEa@CXnNic@@IAEXPBUCEnetAddr@@@Z=$000D331E;CXnNic.SetEa const  // ## UNPATCHED ## - 
?NicStart@CXnNic@@IAEXXZ=$000D2F39;CXnNic.Start const  // ## UNPATCHED ## - 
?NicStartXmitRecv@CXnNic@@AAEXXZ=$000D2D4E;CXnNic.StartXmitRecv const  // ## UNPATCHED ## - 

